   1               		.file	"catboard.c"
   2               	__SREG__ = 0x3f
   3               	__SP_H__ = 0x3e
   4               	__SP_L__ = 0x3d
   5               	__CCP__ = 0x34
   6               	__tmp_reg__ = 0
   7               	__zero_reg__ = 1
  15               	.Ltext0:
  16               		.section	.text.change_layout,"ax",@progbits
  17               	.global	change_layout
  19               	change_layout:
  20               	.LFB13:
  21               	.LSM0:
  22               	/* prologue: function */
  23               	/* frame size = 0 */
  24               	/* stack size = 0 */
  25               	.L__stack_usage = 0
  26               	.LSM1:
  27 0000 8091 0000 		lds r24,mac_mode
  28 0004 8823      		tst r24
  29 0006 01F0      		breq .L2
  30               	.LSM2:
  31 0008 88E0      		ldi r24,lo8(8)
  32 000a 8093 0000 		sts keyboard_modifier_keys,r24
  33               	.LSM3:
  34 000e 1092 0000 		sts keyboard_keys,__zero_reg__
  35               	.LSM4:
  36 0012 0E94 0000 		call usb_keyboard_send
  37               	.LVL0:
  38               	.LBB17:
  39               	.LBB18:
  40               	.LSM5:
  41 0016 8FEF      		 ldi r24,lo8(159999)
  42 0018 90E7      	    ldi r25,hi8(159999)
  43 001a A2E0      	    ldi r26,hlo8(159999)
  44 001c 8150      	    1:subi r24,1
  45 001e 9040      	    sbci r25,0
  46 0020 A040      	    sbci r26,0
  47 0022 01F4      	    brne 1b
  48 0024 00C0      		rjmp .
  49 0026 0000      		nop
  50               	.LBE18:
  51               	.LBE17:
  52               	.LSM6:
  53 0028 8CE2      		ldi r24,lo8(44)
  54 002a 68E0      		ldi r22,lo8(8)
  55 002c 00C0      		rjmp .L4
  56               	.LVL1:
  57               	.L2:
  58               	.LSM7:
  59 002e 84E0      		ldi r24,lo8(4)
  60 0030 8093 0000 		sts keyboard_modifier_keys,r24
  61               	.LSM8:
  62 0034 1092 0000 		sts keyboard_keys,__zero_reg__
  63               	.LSM9:
  64 0038 0E94 0000 		call usb_keyboard_send
  65               	.LVL2:
  66               	.LBB19:
  67               	.LBB20:
  68               	.LSM10:
  69 003c 8FEF      		 ldi r24,lo8(159999)
  70 003e 90E7      	    ldi r25,hi8(159999)
  71 0040 A2E0      	    ldi r26,hlo8(159999)
  72 0042 8150      	    1:subi r24,1
  73 0044 9040      	    sbci r25,0
  74 0046 A040      	    sbci r26,0
  75 0048 01F4      	    brne 1b
  76 004a 00C0      		rjmp .
  77 004c 0000      		nop
  78               	.LBE20:
  79               	.LBE19:
  80               	.LSM11:
  81 004e 80E0      		ldi r24,lo8(0)
  82 0050 66E0      		ldi r22,lo8(6)
  83               	.LVL3:
  84               	.L4:
  85 0052 0E94 0000 		call usb_keyboard_press
  86 0056 0895      		ret
  87               	.LFE13:
  89               		.section	.text.init,"ax",@progbits
  90               	.global	init
  92               	init:
  93               	.LFB8:
  94               	.LSM12:
  95               	/* prologue: function */
  96               	/* frame size = 0 */
  97               	/* stack size = 0 */
  98               	.L__stack_usage = 0
  99               	.LSM13:
 100 0000 80E8      		ldi r24,lo8(-128)
 101 0002 8093 6100 		sts 97,r24
 102 0006 1092 6100 		sts 97,__zero_reg__
 103               	.LSM14:
 104 000a 14B8      		out 36-32,__zero_reg__
 105 000c 94EF      		ldi r25,lo8(-12)
 106 000e 97B9      		out 39-32,r25
 107 0010 1AB8      		out 42-32,__zero_reg__
 108               	.LSM15:
 109 0012 8FEF      		ldi r24,lo8(-1)
 110 0014 85B9      		out 37-32,r24
 111 0016 98B9      		out 40-32,r25
 112 0018 8BB9      		out 43-32,r24
 113               	.LSM16:
 114 001a 549A      		sbi 42-32,4
 115               	.LSM17:
 116 001c 5C9A      		sbi 43-32,4
 117               	.LVL4:
 118 001e E0E0      		ldi r30,lo8(pressed)
 119 0020 F0E0      		ldi r31,hi8(pressed)
 120               	.LVL5:
 121               	.L6:
 122               	.LBB21:
 123               	.LSM18:
 124 0022 1192      		st Z+,__zero_reg__
 125               	.LSM19:
 126 0024 80E0      		ldi r24,hi8(pressed+60)
 127 0026 E030      		cpi r30,lo8(pressed+60)
 128 0028 F807      		cpc r31,r24
 129 002a 01F4      		brne .L6
 130               	.LBE21:
 131               	.LSM20:
 132 002c 0E94 0000 		call usb_init
 133               	.LSM21:
 134 0030 5C98      		cbi 43-32,4
 135               	.L7:
 136               	.LSM22:
 137 0032 0E94 0000 		call usb_configured
 138 0036 8823      		tst r24
 139 0038 01F0      		breq .L7
 140               	.LSM23:
 141 003a 5C9A      		sbi 43-32,4
 142               	.LVL6:
 143               	.LBB22:
 144               	.LBB23:
 145               	.LSM24:
 146 003c 8FEF      		 ldi r24,lo8(3199999)
 147 003e 93ED      	    ldi r25,hi8(3199999)
 148 0040 A0E3      	    ldi r26,hlo8(3199999)
 149 0042 8150      	    1:subi r24,1
 150 0044 9040      	    sbci r25,0
 151 0046 A040      	    sbci r26,0
 152 0048 01F4      	    brne 1b
 153 004a 00C0      		rjmp .
 154 004c 0000      		nop
 155               	.LBE23:
 156               	.LBE22:
 157               	.LSM25:
 158 004e 5C98      		cbi 43-32,4
 159               	/* epilogue start */
 160               	.LSM26:
 161 0050 0895      		ret
 162               	.LFE8:
 164               		.section	.text.get_code,"ax",@progbits
 165               	.global	get_code
 167               	get_code:
 168               	.LFB15:
 169               	.LSM27:
 170               	.LVL7:
 171               	/* prologue: function */
 172               	/* frame size = 0 */
 173               	/* stack size = 0 */
 174               	.L__stack_usage = 0
 175               	.LSM28:
 176 0000 8C33      		cpi r24,lo8(60)
 177 0002 00F4      		brsh .L14
 178               	.LSM29:
 179 0004 282F      		mov r18,r24
 180 0006 30E0      		ldi r19,lo8(0)
 181 0008 F901      		movw r30,r18
 182 000a E050      		subi r30,lo8(-(pressed))
 183 000c F040      		sbci r31,hi8(-(pressed))
 184 000e 9081      		ld r25,Z
 185 0010 9130      		cpi r25,lo8(1)
 186 0012 01F4      		brne .L12
 187               	.LVL8:
 188               	.LSM30:
 189 0014 2050      		subi r18,lo8(-(layer_fn))
 190 0016 3040      		sbci r19,hi8(-(layer_fn))
 191               	.LVL9:
 192 0018 F901      		movw r30,r18
 193 001a 8081      		ld r24,Z
 194               	.LVL10:
 195 001c 1816      		cp __zero_reg__,r24
 196 001e 04F0      		brlt .L11
 197               	.LSM31:
 198 0020 80E0      		ldi r24,lo8(0)
 199 0022 0895      		ret
 200               	.LVL11:
 201               	.L12:
 202               	.LSM32:
 203 0024 4091 0000 		lds r20,layout
 204 0028 5091 0000 		lds r21,layout+1
 205 002c F0E0      		ldi r31,hi8(layer_fn)
 206 002e 4030      		cpi r20,lo8(layer_fn)
 207 0030 5F07      		cpc r21,r31
 208 0032 01F0      		breq .L13
 209               	.LSM33:
 210 0034 9230      		cpi r25,lo8(2)
 211 0036 01F4      		brne .L13
 212               	.LSM34:
 213 0038 2050      		subi r18,lo8(-(layer1))
 214 003a 3040      		sbci r19,hi8(-(layer1))
 215               	.LVL12:
 216 003c F901      		movw r30,r18
 217 003e 00C0      		rjmp .L15
 218               	.L13:
 219               	.LSM35:
 220 0040 480F      		add r20,r24
 221 0042 511D      		adc r21,__zero_reg__
 222 0044 FA01      		movw r30,r20
 223               	.L15:
 224 0046 8081      		ld r24,Z
 225               	.LVL13:
 226 0048 0895      		ret
 227               	.LVL14:
 228               	.L14:
 229               	.LSM36:
 230 004a 80E0      		ldi r24,lo8(0)
 231               	.LVL15:
 232               	.L11:
 233               	.LSM37:
 234 004c 0895      		ret
 235               	.LFE15:
 237               		.section	.text.send,"ax",@progbits
 238               	.global	send
 240               	send:
 241               	.LFB14:
 242               	.LSM38:
 243 0000 0F93      		push r16
 244 0002 1F93      		push r17
 245 0004 CF93      		push r28
 246 0006 DF93      		push r29
 247               	/* prologue: function */
 248               	/* frame size = 0 */
 249               	/* stack size = 4 */
 250               	.L__stack_usage = 4
 251               	.LVL16:
 252               	.LSM39:
 253 0008 C0E0      		ldi r28,lo8(queue)
 254 000a D0E0      		ldi r29,hi8(queue)
 255 000c 00E0      		ldi r16,lo8(keyboard_keys)
 256 000e 10E0      		ldi r17,hi8(keyboard_keys)
 257               	.LVL17:
 258               	.L17:
 259               	.LSM40:
 260 0010 8991      		ld r24,Y+
 261 0012 0E94 0000 		call get_code
 262 0016 F801      		movw r30,r16
 263 0018 8193      		st Z+,r24
 264 001a 8F01      		movw r16,r30
 265               	.LSM41:
 266 001c F0E0      		ldi r31,hi8(queue+6)
 267 001e C030      		cpi r28,lo8(queue+6)
 268 0020 DF07      		cpc r29,r31
 269 0022 01F4      		brne .L17
 270               	.LSM42:
 271 0024 8091 0000 		lds r24,mod_keys
 272 0028 8093 0000 		sts keyboard_modifier_keys,r24
 273               	.LSM43:
 274 002c 0E94 0000 		call usb_keyboard_send
 275               	/* epilogue start */
 276               	.LSM44:
 277 0030 DF91      		pop r29
 278 0032 CF91      		pop r28
 279 0034 1F91      		pop r17
 280 0036 0F91      		pop r16
 281 0038 0895      		ret
 282               	.LFE14:
 284               		.section	.text.key_release,"ax",@progbits
 285               	.global	key_release
 287               	key_release:
 288               	.LFB12:
 289               	.LSM45:
 290               	.LVL18:
 291 0000 0F93      		push r16
 292 0002 1F93      		push r17
 293               	/* prologue: function */
 294               	/* frame size = 0 */
 295               	/* stack size = 2 */
 296               	.L__stack_usage = 2
 297 0004 082F      		mov r16,r24
 298               	.LSM46:
 299 0006 282F      		mov r18,r24
 300 0008 30E0      		ldi r19,lo8(0)
 301 000a F901      		movw r30,r18
 302 000c E050      		subi r30,lo8(-(pressed))
 303 000e F040      		sbci r31,hi8(-(pressed))
 304 0010 1081      		ld r17,Z
 305               	.LVL19:
 306               	.LSM47:
 307 0012 1130      		cpi r17,lo8(1)
 308 0014 01F4      		brne .L20
 309               	.LVL20:
 310               	.LSM48:
 311 0016 F901      		movw r30,r18
 312               	.LVL21:
 313 0018 E050      		subi r30,lo8(-(layer_fn))
 314 001a F040      		sbci r31,hi8(-(layer_fn))
 315 001c 00C0      		rjmp .L46
 316               	.L20:
 317               	.LSM49:
 318 001e E091 0000 		lds r30,layout
 319 0022 F091 0000 		lds r31,layout+1
 320 0026 E20F      		add r30,r18
 321 0028 F31F      		adc r31,r19
 322 002a 8081      		ld r24,Z
 323               	.LVL22:
 324               	.LSM50:
 325 002c 1630      		cpi r17,lo8(6)
 326 002e 01F4      		brne .L21
 327               	.LSM51:
 328 0030 4091 0000 		lds r20,prev_layer
 329 0034 5091 0000 		lds r21,prev_layer+1
 330 0038 4115      		cp r20,__zero_reg__
 331 003a 5105      		cpc r21,__zero_reg__
 332 003c 01F0      		breq .L21
 333               	.LSM52:
 334 003e 420F      		add r20,r18
 335 0040 531F      		adc r21,r19
 336 0042 FA01      		movw r30,r20
 337               	.LVL23:
 338               	.L46:
 339 0044 8081      		ld r24,Z
 340               	.LVL24:
 341               	.L21:
 342               	.LSM53:
 343 0046 2050      		subi r18,lo8(-(pressed))
 344 0048 3040      		sbci r19,hi8(-(pressed))
 345 004a F901      		movw r30,r18
 346 004c 1082      		st Z,__zero_reg__
 347               	.LSM54:
 348 004e 813F      		cpi r24,lo8(-15)
 349 0050 00F4      		brsh .+2
 350 0052 00C0      		rjmp .L22
 351               	.LSM55:
 352 0054 8D3F      		cpi r24,lo8(-3)
 353 0056 01F4      		brne .L23
 354               	.LSM56:
 355 0058 1330      		cpi r17,lo8(3)
 356 005a 01F4      		brne .+2
 357 005c 00C0      		rjmp .L19
 358               	.LSM57:
 359 005e 8091 0000 		lds r24,mod_keys
 360               	.LVL25:
 361 0062 8B7F      		andi r24,lo8(-5)
 362 0064 00C0      		rjmp .L47
 363               	.LVL26:
 364               	.L23:
 365               	.LSM58:
 366 0066 813F      		cpi r24,lo8(-15)
 367 0068 01F4      		brne .L25
 368 006a 8091 0000 		lds r24,mod_keys
 369               	.LVL27:
 370               	.LSM59:
 371 006e 1530      		cpi r17,lo8(5)
 372 0070 01F4      		brne .L26
 373               	.LSM60:
 374 0072 8E7F      		andi r24,lo8(-2)
 375 0074 00C0      		rjmp .L47
 376               	.L26:
 377               	.LSM61:
 378 0076 8D7F      		andi r24,lo8(-3)
 379 0078 8093 0000 		sts mod_keys,r24
 380               	.LSM62:
 381 007c 0E94 0000 		call send
 382               	.LSM63:
 383 0080 8091 0000 		lds r24,last_key
 384 0084 8017      		cp r24,r16
 385 0086 01F0      		breq .+2
 386 0088 00C0      		rjmp .L19
 387               	.LSM64:
 388 008a 1430      		cpi r17,lo8(4)
 389 008c 01F4      		brne .+2
 390 008e 00C0      		rjmp .L19
 391               	.LSM65:
 392 0090 2091 0000 		lds r18,layout
 393 0094 3091 0000 		lds r19,layout+1
 394 0098 80E0      		ldi r24,lo8(layer1)
 395 009a 90E0      		ldi r25,hi8(layer1)
 396 009c 2817      		cp r18,r24
 397 009e 3907      		cpc r19,r25
 398 00a0 01F4      		brne .+2
 399 00a2 00C0      		rjmp .L19
 400               	.LBB24:
 401               	.LSM66:
 402 00a4 40E0      		ldi r20,hi8(layer_fn)
 403 00a6 2030      		cpi r18,lo8(layer_fn)
 404 00a8 3407      		cpc r19,r20
 405 00aa 01F4      		brne .L30
 406 00ac 00C0      		rjmp .L49
 407               	.LVL28:
 408               	.L25:
 409               	.LBE24:
 410               	.LSM67:
 411 00ae 823F      		cpi r24,lo8(-14)
 412 00b0 01F0      		breq .+2
 413 00b2 00C0      		rjmp .L19
 414 00b4 8091 0000 		lds r24,mod_keys
 415               	.LVL29:
 416               	.LSM68:
 417 00b8 1530      		cpi r17,lo8(5)
 418 00ba 01F4      		brne .L29
 419               	.LSM69:
 420 00bc 8F7E      		andi r24,lo8(-17)
 421 00be 00C0      		rjmp .L47
 422               	.L29:
 423               	.LSM70:
 424 00c0 8F7D      		andi r24,lo8(-33)
 425 00c2 8093 0000 		sts mod_keys,r24
 426               	.LSM71:
 427 00c6 0E94 0000 		call send
 428               	.LSM72:
 429 00ca 8091 0000 		lds r24,last_key
 430 00ce 8017      		cp r24,r16
 431 00d0 01F0      		breq .+2
 432 00d2 00C0      		rjmp .L19
 433               	.LSM73:
 434 00d4 1430      		cpi r17,lo8(4)
 435 00d6 01F4      		brne .+2
 436 00d8 00C0      		rjmp .L19
 437               	.LSM74:
 438 00da 2091 0000 		lds r18,layout
 439 00de 3091 0000 		lds r19,layout+1
 440 00e2 80E0      		ldi r24,lo8(layer2)
 441 00e4 90E0      		ldi r25,hi8(layer2)
 442 00e6 2817      		cp r18,r24
 443 00e8 3907      		cpc r19,r25
 444 00ea 01F4      		brne .+2
 445 00ec 00C0      		rjmp .L19
 446               	.LBB25:
 447               	.LSM75:
 448 00ee F0E0      		ldi r31,hi8(layer_fn)
 449 00f0 2030      		cpi r18,lo8(layer_fn)
 450 00f2 3F07      		cpc r19,r31
 451 00f4 01F4      		brne .L30
 452               	.L49:
 453               	.LSM76:
 454 00f6 9093 0000 		sts prev_layer+1,r25
 455 00fa 8093 0000 		sts prev_layer,r24
 456 00fe 00C0      		rjmp .L31
 457               	.L30:
 458               	.LSM77:
 459 0100 9093 0000 		sts layout+1,r25
 460 0104 8093 0000 		sts layout,r24
 461               	.L31:
 462               	.LSM78:
 463 0108 0E94 0000 		call change_layout
 464 010c 00C0      		rjmp .L19
 465               	.LVL30:
 466               	.L22:
 467               	.LBE25:
 468               	.LSM79:
 469 010e 87FF      		sbrs r24,7
 470 0110 00C0      		rjmp .L32
 471               	.LSM80:
 472 0112 9091 0000 		lds r25,mac_mode
 473 0116 9923      		tst r25
 474 0118 01F0      		breq .L33
 475               	.LSM81:
 476 011a 8138      		cpi r24,lo8(-127)
 477 011c 01F4      		brne .L34
 478               	.LSM82:
 479 011e 8091 0000 		lds r24,mod_keys
 480               	.LVL31:
 481 0122 877F      		andi r24,lo8(-9)
 482 0124 00C0      		rjmp .L47
 483               	.LVL32:
 484               	.L34:
 485               	.LSM83:
 486 0126 8039      		cpi r24,lo8(-112)
 487 0128 01F0      		breq .L36
 488               	.L33:
 489               	.LSM84:
 490 012a 8038      		cpi r24,lo8(-128)
 491 012c 01F4      		brne .L37
 492               	.L36:
 493               	.LSM85:
 494 012e 8091 0000 		lds r24,mod_keys
 495               	.LVL33:
 496 0132 8F77      		andi r24,lo8(127)
 497               	.L47:
 498 0134 8093 0000 		sts mod_keys,r24
 499 0138 00C0      		rjmp .L35
 500               	.LVL34:
 501               	.L37:
 502               	.LSM86:
 503 013a 8F77      		andi r24,lo8(127)
 504               	.LVL35:
 505 013c 8095      		com r24
 506 013e 9091 0000 		lds r25,mod_keys
 507 0142 9823      		and r25,r24
 508 0144 9093 0000 		sts mod_keys,r25
 509               	.L35:
 510               	.LSM87:
 511 0148 0E94 0000 		call send
 512 014c 00C0      		rjmp .L19
 513               	.LVL36:
 514               	.L32:
 515 014e E0E0      		ldi r30,lo8(queue)
 516 0150 F0E0      		ldi r31,hi8(queue)
 517               	.LSM88:
 518 0152 80E0      		ldi r24,lo8(0)
 519               	.LVL37:
 520               	.L40:
 521               	.LSM89:
 522 0154 9191      		ld r25,Z+
 523 0156 9017      		cp r25,r16
 524 0158 01F0      		breq .L45
 525               	.LSM90:
 526 015a 8F5F      		subi r24,lo8(-(1))
 527               	.LVL38:
 528 015c 8630      		cpi r24,lo8(6)
 529 015e 01F4      		brne .L40
 530 0160 00C0      		rjmp .L45
 531               	.L42:
 532               	.LSM91:
 533 0162 E82F      		mov r30,r24
 534 0164 F0E0      		ldi r31,lo8(0)
 535 0166 E050      		subi r30,lo8(-(queue))
 536 0168 F040      		sbci r31,hi8(-(queue))
 537 016a 9181      		ldd r25,Z+1
 538 016c 9083      		st Z,r25
 539               	.LSM92:
 540 016e 8F5F      		subi r24,lo8(-(1))
 541               	.LVL39:
 542               	.L45:
 543               	.LSM93:
 544 0170 8630      		cpi r24,lo8(6)
 545 0172 00F0      		brlo .L42
 546               	.LSM94:
 547 0174 0E94 0000 		call send
 548               	.LVL40:
 549               	.LSM95:
 550 0178 8091 0000 		lds r24,last_key
 551 017c 8017      		cp r24,r16
 552 017e 01F4      		brne .L43
 553               	.LSM96:
 554 0180 1092 0000 		sts press_time2+1,__zero_reg__
 555 0184 1092 0000 		sts press_time2,__zero_reg__
 556               	.LSM97:
 557 0188 81E0      		ldi r24,lo8(1)
 558 018a 90E0      		ldi r25,hi8(1)
 559 018c 9093 0000 		sts release_time+1,r25
 560 0190 8093 0000 		sts release_time,r24
 561 0194 00C0      		rjmp .L48
 562               	.L43:
 563               	.LSM98:
 564 0196 1092 0000 		sts press_time+1,__zero_reg__
 565 019a 1092 0000 		sts press_time,__zero_reg__
 566               	.LSM99:
 567 019e 1092 0000 		sts press_time2+1,__zero_reg__
 568 01a2 1092 0000 		sts press_time2,__zero_reg__
 569               	.LSM100:
 570 01a6 1092 0000 		sts release_time+1,__zero_reg__
 571 01aa 1092 0000 		sts release_time,__zero_reg__
 572               	.L48:
 573               	.LSM101:
 574 01ae 1092 0000 		sts repeat_time+1,__zero_reg__
 575 01b2 1092 0000 		sts repeat_time,__zero_reg__
 576               	.L19:
 577               	/* epilogue start */
 578               	.LSM102:
 579 01b6 1F91      		pop r17
 580               	.LVL41:
 581 01b8 0F91      		pop r16
 582               	.LVL42:
 583 01ba 0895      		ret
 584               	.LFE12:
 586               		.section	.text.key_press,"ax",@progbits
 587               	.global	key_press
 589               	key_press:
 590               	.LFB11:
 591               	.LSM103:
 592               	.LVL43:
 593 0000 1F93      		push r17
 594               	/* prologue: function */
 595               	/* frame size = 0 */
 596               	/* stack size = 1 */
 597               	.L__stack_usage = 1
 598 0002 182F      		mov r17,r24
 599               	.LSM104:
 600 0004 6091 0000 		lds r22,mod_keys
 601 0008 962F      		mov r25,r22
 602 000a 9D7D      		andi r25,lo8(-35)
 603               	.LVL44:
 604               	.LSM105:
 605 000c 282F      		mov r18,r24
 606 000e 30E0      		ldi r19,lo8(0)
 607 0010 8091 0000 		lds r24,pressed+35
 608               	.LVL45:
 609 0014 8823      		tst r24
 610 0016 01F4      		brne .L86
 611               	.LSM106:
 612 0018 9923      		tst r25
 613 001a 01F0      		breq .L87
 614               	.LSM107:
 615 001c 82E0      		ldi r24,lo8(2)
 616 001e 00C0      		rjmp .L51
 617               	.L86:
 618 0020 81E0      		ldi r24,lo8(1)
 619 0022 00C0      		rjmp .L51
 620               	.L87:
 621 0024 8FEF      		ldi r24,lo8(-1)
 622               	.L51:
 623               	.LSM108:
 624 0026 F901      		movw r30,r18
 625 0028 E050      		subi r30,lo8(-(pressed))
 626 002a F040      		sbci r31,hi8(-(pressed))
 627 002c 8083      		st Z,r24
 628               	.LSM109:
 629 002e 8130      		cpi r24,lo8(1)
 630 0030 01F4      		brne .L52
 631               	.LSM110:
 632 0032 F901      		movw r30,r18
 633 0034 E050      		subi r30,lo8(-(layer_fn))
 634 0036 F040      		sbci r31,hi8(-(layer_fn))
 635 0038 00C0      		rjmp .L89
 636               	.L52:
 637               	.LSM111:
 638 003a E091 0000 		lds r30,layout
 639 003e F091 0000 		lds r31,layout+1
 640 0042 E10F      		add r30,r17
 641 0044 F11D      		adc r31,__zero_reg__
 642               	.L89:
 643 0046 8081      		ld r24,Z
 644               	.LVL46:
 645               	.LSM112:
 646 0048 8823      		tst r24
 647 004a 01F4      		brne .L54
 648               	.LSM113:
 649 004c 412F      		mov r20,r17
 650 004e 50E0      		ldi r21,lo8(0)
 651 0050 E091 0000 		lds r30,layout
 652 0054 F091 0000 		lds r31,layout+1
 653               	.LVL47:
 654 0058 E40F      		add r30,r20
 655 005a F51F      		adc r31,r21
 656 005c 8081      		ld r24,Z
 657               	.LVL48:
 658               	.LSM114:
 659 005e 9923      		tst r25
 660 0060 01F0      		breq .L88
 661 0062 92E0      		ldi r25,lo8(2)
 662               	.LVL49:
 663 0064 00C0      		rjmp .L55
 664               	.LVL50:
 665               	.L88:
 666 0066 9FEF      		ldi r25,lo8(-1)
 667               	.LVL51:
 668               	.L55:
 669               	.LSM115:
 670 0068 F901      		movw r30,r18
 671               	.LVL52:
 672 006a E050      		subi r30,lo8(-(pressed))
 673 006c F040      		sbci r31,hi8(-(pressed))
 674 006e 9083      		st Z,r25
 675               	.LSM116:
 676 0070 8823      		tst r24
 677 0072 01F4      		brne .L54
 678               	.LSM117:
 679 0074 8091 0000 		lds r24,prev_layer
 680 0078 9091 0000 		lds r25,prev_layer+1
 681               	.LVL53:
 682 007c 0097      		sbiw r24,0
 683 007e 01F4      		brne .+2
 684 0080 00C0      		rjmp .L77
 685 0082 6623      		tst r22
 686 0084 01F0      		breq .+2
 687 0086 00C0      		rjmp .L77
 688               	.LSM118:
 689 0088 480F      		add r20,r24
 690 008a 591F      		adc r21,r25
 691 008c DA01      		movw r26,r20
 692 008e 8C91      		ld r24,X
 693               	.LVL54:
 694               	.LSM119:
 695 0090 96E0      		ldi r25,lo8(6)
 696 0092 9083      		st Z,r25
 697               	.LVL55:
 698               	.L54:
 699               	.LSM120:
 700 0094 813F      		cpi r24,lo8(-15)
 701 0096 00F4      		brsh .+2
 702 0098 00C0      		rjmp .L56
 703               	.LSM121:
 704 009a 8D3F      		cpi r24,lo8(-3)
 705 009c 01F4      		brne .L57
 706               	.LSM122:
 707 009e F901      		movw r30,r18
 708 00a0 E050      		subi r30,lo8(-(pressed))
 709 00a2 F040      		sbci r31,hi8(-(pressed))
 710 00a4 8081      		ld r24,Z
 711               	.LVL56:
 712 00a6 8130      		cpi r24,lo8(1)
 713 00a8 01F4      		brne .L58
 714               	.LSM123:
 715 00aa 8BE2      		ldi r24,lo8(43)
 716 00ac 64E0      		ldi r22,lo8(4)
 717 00ae 00C0      		rjmp .L92
 718               	.L58:
 719               	.LSM124:
 720 00b0 8091 0000 		lds r24,mod_keys
 721 00b4 982F      		mov r25,r24
 722 00b6 9D7D      		andi r25,lo8(-35)
 723 00b8 01F4      		brne .L60
 724               	.LSM125:
 725 00ba 8460      		ori r24,lo8(4)
 726 00bc 8093 0000 		sts mod_keys,r24
 727 00c0 00C0      		rjmp .L61
 728               	.L60:
 729               	.LSM126:
 730 00c2 83E0      		ldi r24,lo8(3)
 731 00c4 8083      		st Z,r24
 732               	.L61:
 733               	.LSM127:
 734 00c6 8091 0000 		lds r24,mod_keys
 735 00ca 8093 0000 		sts keyboard_modifier_keys,r24
 736               	.LSM128:
 737 00ce 8BE2      		ldi r24,lo8(43)
 738 00d0 8093 0000 		sts keyboard_keys,r24
 739               	.LSM129:
 740 00d4 0E94 0000 		call usb_keyboard_send
 741               	.LVL57:
 742               	.LBB26:
 743               	.LBB27:
 744               	.LSM130:
 745 00d8 8FEF      		 ldi r24,lo8(159999)
 746 00da 90E7      	    ldi r25,hi8(159999)
 747 00dc A2E0      	    ldi r26,hlo8(159999)
 748 00de 8150      	    1:subi r24,1
 749 00e0 9040      	    sbci r25,0
 750 00e2 A040      	    sbci r26,0
 751 00e4 01F4      	    brne 1b
 752 00e6 00C0      		rjmp .
 753 00e8 0000      		nop
 754 00ea 00C0      		rjmp .L91
 755               	.LVL58:
 756               	.L57:
 757               	.LBE27:
 758               	.LBE26:
 759               	.LSM131:
 760 00ec 8E3F      		cpi r24,lo8(-2)
 761 00ee 01F4      		brne .L62
 762               	.LSM132:
 763 00f0 2091 0000 		lds r18,prev_layer
 764 00f4 3091 0000 		lds r19,prev_layer+1
 765 00f8 2115      		cp r18,__zero_reg__
 766 00fa 3105      		cpc r19,__zero_reg__
 767 00fc 01F0      		breq .L63
 768               	.LSM133:
 769 00fe 3093 0000 		sts layout+1,r19
 770 0102 2093 0000 		sts layout,r18
 771               	.LSM134:
 772 0106 1092 0000 		sts prev_layer+1,__zero_reg__
 773 010a 1092 0000 		sts prev_layer,__zero_reg__
 774 010e 00C0      		rjmp .L64
 775               	.L63:
 776               	.LSM135:
 777 0110 8091 0000 		lds r24,layout
 778 0114 9091 0000 		lds r25,layout+1
 779               	.LVL59:
 780 0118 9093 0000 		sts prev_layer+1,r25
 781 011c 8093 0000 		sts prev_layer,r24
 782               	.LSM136:
 783 0120 80E0      		ldi r24,lo8(layer_fnlock)
 784 0122 90E0      		ldi r25,hi8(layer_fnlock)
 785 0124 9093 0000 		sts layout+1,r25
 786 0128 8093 0000 		sts layout,r24
 787               	.L64:
 788               	.LSM137:
 789 012c 8091 0000 		lds r24,prev_layer
 790 0130 9091 0000 		lds r25,prev_layer+1
 791 0134 0097      		sbiw r24,0
 792 0136 01F4      		brne .L70
 793               	.LSM138:
 794 0138 8091 0000 		lds r24,mac_mode
 795 013c 8823      		tst r24
 796 013e 01F0      		breq .L71
 797 0140 00C0      		rjmp .L70
 798               	.LVL60:
 799               	.L62:
 800               	.LSM139:
 801 0142 8C3F      		cpi r24,lo8(-4)
 802 0144 01F4      		brne .L67
 803               	.LSM140:
 804 0146 2050      		subi r18,lo8(-(pressed))
 805 0148 3040      		sbci r19,hi8(-(pressed))
 806 014a D901      		movw r26,r18
 807 014c 8C91      		ld r24,X
 808               	.LVL61:
 809 014e 8130      		cpi r24,lo8(1)
 810 0150 01F4      		brne .L68
 811               	.LSM141:
 812 0152 8091 0000 		lds r24,mod_keys
 813 0156 8272      		andi r24,lo8(34)
 814 0158 01F0      		breq .L68
 815               	.LSM142:
 816 015a 81E0      		ldi r24,lo8(1)
 817 015c 9091 0000 		lds r25,mac_mode
 818 0160 9111      		cpse r25,__zero_reg__
 819 0162 80E0      		ldi r24,lo8(0)
 820               	.L69:
 821 0164 8093 0000 		sts mac_mode,r24
 822               	.LSM143:
 823 0168 8823      		tst r24
 824 016a 01F4      		brne .L70
 825               	.LSM144:
 826 016c 8091 0000 		lds r24,prev_layer
 827 0170 9091 0000 		lds r25,prev_layer+1
 828 0174 0097      		sbiw r24,0
 829 0176 01F0      		breq .L71
 830               	.L70:
 831               	.LSM145:
 832 0178 5C9A      		sbi 43-32,4
 833 017a 00C0      		rjmp .L59
 834               	.L71:
 835               	.LSM146:
 836 017c 5C98      		cbi 43-32,4
 837 017e 00C0      		rjmp .L59
 838               	.L68:
 839               	.LSM147:
 840 0180 8CE2      		ldi r24,lo8(44)
 841 0182 6091 0000 		lds r22,mod_keys
 842               	.L92:
 843 0186 0E94 0000 		call usb_keyboard_press
 844 018a 00C0      		rjmp .L59
 845               	.LVL62:
 846               	.L67:
 847               	.LSM148:
 848 018c 813F      		cpi r24,lo8(-15)
 849 018e 01F4      		brne .L72
 850               	.LSM149:
 851 0190 8091 0000 		lds r24,mod_keys
 852               	.LVL63:
 853 0194 982F      		mov r25,r24
 854 0196 9272      		andi r25,lo8(34)
 855 0198 01F0      		breq .L73
 856               	.LSM150:
 857 019a 2050      		subi r18,lo8(-(pressed))
 858 019c 3040      		sbci r19,hi8(-(pressed))
 859 019e 95E0      		ldi r25,lo8(5)
 860 01a0 F901      		movw r30,r18
 861 01a2 9083      		st Z,r25
 862               	.LSM151:
 863 01a4 8160      		ori r24,lo8(1)
 864 01a6 00C0      		rjmp .L94
 865               	.L73:
 866               	.LSM152:
 867 01a8 8823      		tst r24
 868 01aa 01F0      		breq .L74
 869               	.LSM153:
 870 01ac 2050      		subi r18,lo8(-(pressed))
 871 01ae 3040      		sbci r19,hi8(-(pressed))
 872 01b0 94E0      		ldi r25,lo8(4)
 873 01b2 D901      		movw r26,r18
 874 01b4 9C93      		st X,r25
 875               	.L74:
 876               	.LSM154:
 877 01b6 8260      		ori r24,lo8(2)
 878               	.L94:
 879 01b8 8093 0000 		sts mod_keys,r24
 880 01bc 00C0      		rjmp .L91
 881               	.LVL64:
 882               	.L72:
 883               	.LSM155:
 884 01be 823F      		cpi r24,lo8(-14)
 885 01c0 01F4      		brne .L75
 886               	.LSM156:
 887 01c2 8091 0000 		lds r24,mod_keys
 888               	.LVL65:
 889 01c6 8062      		ori r24,lo8(32)
 890 01c8 00C0      		rjmp .L94
 891               	.LVL66:
 892               	.L75:
 893               	.LSM157:
 894 01ca 8B3F      		cpi r24,lo8(-5)
 895 01cc 01F0      		breq .+2
 896 01ce 00C0      		rjmp .L59
 897               	.LSM158:
 898 01d0 81E0      		ldi r24,lo8(1)
 899               	.LVL67:
 900 01d2 9091 0000 		lds r25,turbo_repeat
 901 01d6 9111      		cpse r25,__zero_reg__
 902 01d8 80E0      		ldi r24,lo8(0)
 903               	.L76:
 904 01da 8093 0000 		sts turbo_repeat,r24
 905 01de 00C0      		rjmp .L59
 906               	.LVL68:
 907               	.L56:
 908               	.LSM159:
 909 01e0 87FF      		sbrs r24,7
 910 01e2 00C0      		rjmp .L77
 911               	.LSM160:
 912 01e4 9091 0000 		lds r25,mac_mode
 913 01e8 9923      		tst r25
 914 01ea 01F0      		breq .L78
 915               	.LSM161:
 916 01ec 8138      		cpi r24,lo8(-127)
 917 01ee 01F4      		brne .L79
 918               	.LSM162:
 919 01f0 8091 0000 		lds r24,mod_keys
 920               	.LVL69:
 921 01f4 8860      		ori r24,lo8(8)
 922 01f6 00C0      		rjmp .L94
 923               	.LVL70:
 924               	.L79:
 925               	.LSM163:
 926 01f8 8039      		cpi r24,lo8(-112)
 927 01fa 01F0      		breq .L81
 928               	.L78:
 929               	.LSM164:
 930 01fc 8038      		cpi r24,lo8(-128)
 931 01fe 01F4      		brne .L82
 932               	.L81:
 933               	.LSM165:
 934 0200 8091 0000 		lds r24,mod_keys
 935               	.LVL71:
 936 0204 8068      		ori r24,lo8(-128)
 937 0206 00C0      		rjmp .L94
 938               	.LVL72:
 939               	.L82:
 940               	.LSM166:
 941 0208 8F77      		andi r24,lo8(127)
 942               	.LVL73:
 943 020a 9091 0000 		lds r25,mod_keys
 944 020e 982B      		or r25,r24
 945 0210 9093 0000 		sts mod_keys,r25
 946 0214 00C0      		rjmp .L91
 947               	.L77:
 948               	.LSM167:
 949 0216 8091 0000 		lds r24,last_key
 950 021a 8117      		cp r24,r17
 951 021c 01F4      		brne .L83
 952               	.LSM168:
 953 021e 8091 0000 		lds r24,release_time
 954 0222 9091 0000 		lds r25,release_time+1
 955 0226 8A30      		cpi r24,10
 956 0228 9105      		cpc r25,__zero_reg__
 957 022a 00F0      		brlo .L59
 958               	.L83:
 959               	.LVL74:
 960               	.LSM169:
 961 022c 8091 0000 		lds r24,queue+4
 962 0230 8093 0000 		sts queue+5,r24
 963               	.LVL75:
 964 0234 8091 0000 		lds r24,queue+3
 965 0238 8093 0000 		sts queue+4,r24
 966               	.LVL76:
 967 023c 8091 0000 		lds r24,queue+2
 968 0240 8093 0000 		sts queue+3,r24
 969               	.LVL77:
 970 0244 8091 0000 		lds r24,queue+1
 971 0248 8093 0000 		sts queue+2,r24
 972               	.LVL78:
 973 024c 8091 0000 		lds r24,queue
 974 0250 8093 0000 		sts queue+1,r24
 975               	.LVL79:
 976               	.LSM170:
 977 0254 1093 0000 		sts queue,r17
 978               	.LVL80:
 979               	.L91:
 980               	.LSM171:
 981 0258 0E94 0000 		call send
 982               	.L59:
 983               	.LSM172:
 984 025c 8091 0000 		lds r24,last_key
 985 0260 8117      		cp r24,r17
 986 0262 01F4      		brne .L84
 987               	.LSM173:
 988 0264 81E0      		ldi r24,lo8(1)
 989 0266 90E0      		ldi r25,hi8(1)
 990 0268 9093 0000 		sts press_time2+1,r25
 991 026c 8093 0000 		sts press_time2,r24
 992 0270 00C0      		rjmp .L93
 993               	.L84:
 994               	.LSM174:
 995 0272 1093 0000 		sts last_key,r17
 996               	.LSM175:
 997 0276 81E0      		ldi r24,lo8(1)
 998 0278 90E0      		ldi r25,hi8(1)
 999 027a 9093 0000 		sts press_time+1,r25
 1000 027e 8093 0000 		sts press_time,r24
 1001               	.LSM176:
 1002 0282 1092 0000 		sts press_time2+1,__zero_reg__
 1003 0286 1092 0000 		sts press_time2,__zero_reg__
 1004               	.LSM177:
 1005 028a 1092 0000 		sts release_time+1,__zero_reg__
 1006 028e 1092 0000 		sts release_time,__zero_reg__
 1007               	.L93:
 1008               	.LSM178:
 1009 0292 1092 0000 		sts repeat_time+1,__zero_reg__
 1010 0296 1092 0000 		sts repeat_time,__zero_reg__
 1011               	/* epilogue start */
 1012               	.LSM179:
 1013 029a 1F91      		pop r17
 1014               	.LVL81:
 1015 029c 0895      		ret
 1016               	.LFE11:
 1018               		.section	.text.repeat_tick,"ax",@progbits
 1019               	.global	repeat_tick
 1021               	repeat_tick:
 1022               	.LFB10:
 1023               	.LSM180:
 1024               	/* prologue: function */
 1025               	/* frame size = 0 */
 1026               	/* stack size = 0 */
 1027               	.L__stack_usage = 0
 1028               	.LSM181:
 1029 0000 8091 0000 		lds r24,repeat_time
 1030 0004 9091 0000 		lds r25,repeat_time+1
 1031 0008 0097      		sbiw r24,0
 1032 000a 01F0      		breq .L96
 1033               	.LSM182:
 1034 000c 2091 0000 		lds r18,release_time
 1035 0010 3091 0000 		lds r19,release_time+1
 1036 0014 3695      		lsr r19
 1037 0016 2795      		ror r18
 1038 0018 3695      		lsr r19
 1039 001a 2795      		ror r18
 1040 001c 8217      		cp r24,r18
 1041 001e 9307      		cpc r25,r19
 1042 0020 00F4      		brsh .L97
 1043               	.LSM183:
 1044 0022 0196      		adiw r24,1
 1045 0024 00C0      		rjmp .L106
 1046               	.L97:
 1047               	.LSM184:
 1048 0026 81E0      		ldi r24,lo8(1)
 1049 0028 90E0      		ldi r25,hi8(1)
 1050 002a 9093 0000 		sts repeat_time+1,r25
 1051 002e 8093 0000 		sts repeat_time,r24
 1052               	.LSM185:
 1053 0032 8091 0000 		lds r24,turbo_repeat
 1054 0036 8823      		tst r24
 1055 0038 01F4      		brne .+2
 1056 003a 00C0      		rjmp .L95
 1057               	.LSM186:
 1058 003c 8091 0000 		lds r24,mod_keys
 1059 0040 8093 0000 		sts keyboard_modifier_keys,r24
 1060               	.LSM187:
 1061 0044 8091 0000 		lds r24,last_key
 1062 0048 0E94 0000 		call get_code
 1063 004c 8093 0000 		sts keyboard_keys,r24
 1064               	.LSM188:
 1065 0050 0E94 0000 		call usb_keyboard_send
 1066 0054 8823      		tst r24
 1067 0056 01F0      		breq .+2
 1068 0058 00C0      		rjmp .L95
 1069               	.LSM189:
 1070 005a 1092 0000 		sts keyboard_keys,__zero_reg__
 1071               	.LSM190:
 1072 005e 0E94 0000 		call usb_keyboard_send
 1073 0062 0895      		ret
 1074               	.L96:
 1075               	.LSM191:
 1076 0064 8091 0000 		lds r24,press_time2
 1077 0068 9091 0000 		lds r25,press_time2+1
 1078 006c 0097      		sbiw r24,0
 1079 006e 01F0      		breq .L99
 1080               	.LSM192:
 1081 0070 4091 0000 		lds r20,press_time
 1082 0074 5091 0000 		lds r21,press_time+1
 1083 0078 2091 0000 		lds r18,pressed+35
 1084 007c 2223      		tst r18
 1085 007e 01F0      		breq .L105
 1086 0080 25E0      		ldi r18,lo8(5)
 1087 0082 30E0      		ldi r19,hi8(5)
 1088 0084 00C0      		rjmp .L100
 1089               	.L105:
 1090 0086 2EE1      		ldi r18,lo8(30)
 1091 0088 30E0      		ldi r19,hi8(30)
 1092               	.L100:
 1093               	.LSM193:
 1094 008a 240F      		add r18,r20
 1095 008c 351F      		adc r19,r21
 1096 008e 8217      		cp r24,r18
 1097 0090 9307      		cpc r25,r19
 1098 0092 00F4      		brsh .L101
 1099               	.LSM194:
 1100 0094 0196      		adiw r24,1
 1101 0096 9093 0000 		sts press_time2+1,r25
 1102 009a 8093 0000 		sts press_time2,r24
 1103 009e 0895      		ret
 1104               	.L101:
 1105               	.LSM195:
 1106 00a0 81E0      		ldi r24,lo8(1)
 1107 00a2 90E0      		ldi r25,hi8(1)
 1108               	.L106:
 1109 00a4 9093 0000 		sts repeat_time+1,r25
 1110 00a8 8093 0000 		sts repeat_time,r24
 1111 00ac 0895      		ret
 1112               	.L99:
 1113               	.LSM196:
 1114 00ae 2091 0000 		lds r18,release_time
 1115 00b2 3091 0000 		lds r19,release_time+1
 1116 00b6 8091 0000 		lds r24,press_time
 1117 00ba 9091 0000 		lds r25,press_time+1
 1118 00be 2115      		cp r18,__zero_reg__
 1119 00c0 3105      		cpc r19,__zero_reg__
 1120 00c2 01F0      		breq .L102
 1121               	.LSM197:
 1122 00c4 C296      		adiw r24,50
 1123 00c6 2817      		cp r18,r24
 1124 00c8 3907      		cpc r19,r25
 1125 00ca 00F4      		brsh .L103
 1126               	.LSM198:
 1127 00cc 2F5F      		subi r18,lo8(-(1))
 1128 00ce 3F4F      		sbci r19,hi8(-(1))
 1129 00d0 3093 0000 		sts release_time+1,r19
 1130 00d4 2093 0000 		sts release_time,r18
 1131 00d8 0895      		ret
 1132               	.L103:
 1133               	.LSM199:
 1134 00da 1092 0000 		sts last_key,__zero_reg__
 1135               	.LSM200:
 1136 00de 1092 0000 		sts release_time+1,__zero_reg__
 1137 00e2 1092 0000 		sts release_time,__zero_reg__
 1138               	.LSM201:
 1139 00e6 1092 0000 		sts press_time+1,__zero_reg__
 1140 00ea 1092 0000 		sts press_time,__zero_reg__
 1141               	.LSM202:
 1142 00ee 1092 0000 		sts press_time2+1,__zero_reg__
 1143 00f2 1092 0000 		sts press_time2,__zero_reg__
 1144 00f6 0895      		ret
 1145               	.L102:
 1146               	.LSM203:
 1147 00f8 0097      		sbiw r24,0
 1148 00fa 01F0      		breq .L95
 1149               	.LSM204:
 1150 00fc 8A3F      		cpi r24,250
 1151 00fe 9105      		cpc r25,__zero_reg__
 1152 0100 00F4      		brsh .L104
 1153               	.LSM205:
 1154 0102 0196      		adiw r24,1
 1155 0104 9093 0000 		sts press_time+1,r25
 1156 0108 8093 0000 		sts press_time,r24
 1157 010c 0895      		ret
 1158               	.L104:
 1159               	.LSM206:
 1160 010e 1092 0000 		sts press_time+1,__zero_reg__
 1161 0112 1092 0000 		sts press_time,__zero_reg__
 1162               	.L95:
 1163 0116 0895      		ret
 1164               	.LFE10:
 1166               		.section	.text.poll,"ax",@progbits
 1167               	.global	poll
 1169               	poll:
 1170               	.LFB9:
 1171               	.LSM207:
 1172 0000 8F92      		push r8
 1173 0002 9F92      		push r9
 1174 0004 AF92      		push r10
 1175 0006 BF92      		push r11
 1176 0008 CF92      		push r12
 1177 000a DF92      		push r13
 1178 000c EF92      		push r14
 1179 000e FF92      		push r15
 1180 0010 0F93      		push r16
 1181 0012 1F93      		push r17
 1182 0014 CF93      		push r28
 1183 0016 DF93      		push r29
 1184               	/* prologue: function */
 1185               	/* frame size = 0 */
 1186               	/* stack size = 12 */
 1187               	.L__stack_usage = 12
 1188               	.LVL82:
 1189               	.LSM208:
 1190 0018 00E0      		ldi r16,lo8(row_port)
 1191 001a 10E0      		ldi r17,hi8(row_port)
 1192 001c C0E0      		ldi r28,lo8(row_bit)
 1193 001e D0E0      		ldi r29,hi8(row_bit)
 1194               	.LSM209:
 1195 0020 9924      		clr r9
 1196               	.LVL83:
 1197               	.L111:
 1198               	.LSM210:
 1199 0022 D801      		movw r26,r16
 1200 0024 ED91      		ld r30,X+
 1201 0026 FC91      		ld r31,X
 1202               	.LSM211:
 1203 0028 5E01      		movw r10,r28
 1204               	.LSM212:
 1205 002a 9881      		ld r25,Y
 1206 002c 9095      		com r25
 1207 002e 8081      		ld r24,Z
 1208 0030 8923      		and r24,r25
 1209 0032 8083      		st Z,r24
 1210               	.LVL84:
 1211               	.LBB28:
 1212               	.LBB29:
 1213               	.LSM213:
 1214 0034 B5E0      		 ldi r27,lo8(5)
 1215 0036 BA95      	    1:dec r27
 1216 0038 01F4      	    brne 1b
 1217 003a 0000      		nop
 1218               	.LVL85:
 1219 003c 60E0      		ldi r22,lo8(col_pin)
 1220 003e E62E      		mov r14,r22
 1221 0040 60E0      		ldi r22,hi8(col_pin)
 1222 0042 F62E      		mov r15,r22
 1223 0044 50E0      		ldi r21,lo8(col_bit)
 1224 0046 C52E      		mov r12,r21
 1225 0048 50E0      		ldi r21,hi8(col_bit)
 1226 004a D52E      		mov r13,r21
 1227               	.LBE29:
 1228               	.LBE28:
 1229               	.LSM214:
 1230 004c 892C      		mov r8,r9
 1231               	.LVL86:
 1232               	.L110:
 1233               	.LSM215:
 1234 004e D701      		movw r26,r14
 1235 0050 ED91      		ld r30,X+
 1236 0052 FD91      		ld r31,X+
 1237 0054 7D01      		movw r14,r26
 1238 0056 D601      		movw r26,r12
 1239 0058 8D91      		ld r24,X+
 1240 005a 6D01      		movw r12,r26
 1241 005c 9081      		ld r25,Z
 1242 005e 8923      		and r24,r25
 1243 0060 282D      		mov r18,r8
 1244 0062 30E0      		ldi r19,lo8(0)
 1245 0064 01F4      		brne .L108
 1246               	.LSM216:
 1247 0066 2050      		subi r18,lo8(-(pressed))
 1248 0068 3040      		sbci r19,hi8(-(pressed))
 1249 006a F901      		movw r30,r18
 1250 006c 8081      		ld r24,Z
 1251 006e 8823      		tst r24
 1252 0070 01F4      		brne .L109
 1253               	.LSM217:
 1254 0072 882D      		mov r24,r8
 1255 0074 0E94 0000 		call key_press
 1256 0078 00C0      		rjmp .L109
 1257               	.L108:
 1258               	.LSM218:
 1259 007a 2050      		subi r18,lo8(-(pressed))
 1260 007c 3040      		sbci r19,hi8(-(pressed))
 1261 007e D901      		movw r26,r18
 1262 0080 8C91      		ld r24,X
 1263 0082 8823      		tst r24
 1264 0084 01F0      		breq .L109
 1265               	.LSM219:
 1266 0086 882D      		mov r24,r8
 1267 0088 0E94 0000 		call key_release
 1268               	.L109:
 1269 008c B5E0      		ldi r27,lo8(5)
 1270 008e 8B0E      		add r8,r27
 1271               	.LVL87:
 1272               	.LSM220:
 1273 0090 E0E0      		ldi r30,lo8(col_pin+24)
 1274 0092 EE16      		cp r14,r30
 1275 0094 E0E0      		ldi r30,hi8(col_pin+24)
 1276 0096 FE06      		cpc r15,r30
 1277 0098 01F4      		brne .L110
 1278               	.LSM221:
 1279 009a D801      		movw r26,r16
 1280 009c ED91      		ld r30,X+
 1281 009e FD91      		ld r31,X+
 1282 00a0 8D01      		movw r16,r26
 1283 00a2 2196      		adiw r28,1
 1284 00a4 8081      		ld r24,Z
 1285 00a6 D501      		movw r26,r10
 1286 00a8 9C91      		ld r25,X
 1287 00aa 892B      		or r24,r25
 1288 00ac 8083      		st Z,r24
 1289               	.LSM222:
 1290 00ae 9394      		inc r9
 1291               	.LVL88:
 1292 00b0 B92D      		mov r27,r9
 1293 00b2 B530      		cpi r27,lo8(5)
 1294 00b4 01F0      		breq .+2
 1295 00b6 00C0      		rjmp .L111
 1296               	.LSM223:
 1297 00b8 0E94 0000 		call repeat_tick
 1298               	.LVL89:
 1299               	.LBB30:
 1300               	.LBB31:
 1301               	.LSM224:
 1302 00bc EFE1      		 ldi r30,lo8(19999)
 1303 00be FEE4      	    ldi r31,hi8(19999)
 1304 00c0 3197      	    1:sbiw r30,1
 1305 00c2 01F4      	    brne 1b
 1306 00c4 00C0      		rjmp .
 1307 00c6 0000      		nop
 1308               	/* epilogue start */
 1309               	.LBE31:
 1310               	.LBE30:
 1311               	.LSM225:
 1312 00c8 DF91      		pop r29
 1313 00ca CF91      		pop r28
 1314 00cc 1F91      		pop r17
 1315 00ce 0F91      		pop r16
 1316 00d0 FF90      		pop r15
 1317 00d2 EF90      		pop r14
 1318 00d4 DF90      		pop r13
 1319 00d6 CF90      		pop r12
 1320 00d8 BF90      		pop r11
 1321 00da AF90      		pop r10
 1322 00dc 9F90      		pop r9
 1323               	.LVL90:
 1324 00de 8F90      		pop r8
 1325               	.LVL91:
 1326 00e0 0895      		ret
 1327               	.LFE9:
 1329               		.section	.text.main,"ax",@progbits
 1330               	.global	main
 1332               	main:
 1333               	.LFB7:
 1334               	.LSM226:
 1335               	/* prologue: function */
 1336               	/* frame size = 0 */
 1337               	/* stack size = 0 */
 1338               	.L__stack_usage = 0
 1339               	.LSM227:
 1340 0000 84B7      		in r24,84-32
 1341 0002 877F      		andi r24,lo8(-9)
 1342 0004 84BF      		out 84-32,r24
 1343               	.LSM228:
 1344 0006 88E1      		ldi r24,lo8(24)
 1345               	/* #APP */
 1346               	 ;  163 "catboard.c" 1
 1347 0008 0FB6      		in __tmp_reg__, __SREG__
 1348 000a F894      		cli
 1349 000c 8093 6000 		sts 96, r24
 1350 0010 1092 6000 		sts 96, __zero_reg__
 1351 0014 0FBE      		out __SREG__,__tmp_reg__
 1352               		
 1353               	 ;  0 "" 2
 1354               	.LVL92:
 1355               	/* #NOAPP */
 1356               	.LBB32:
 1357               	.LBB33:
 1358               	.LSM229:
 1359 0016 90E0      		ldi r25,lo8(0)
 1360 0018 80E8      		ldi r24,lo8(-128)
 1361               	/* #APP */
 1362               	 ;  1492 "/usr/lib/gcc/avr/4.5.3/../../../avr/include/avr/power.h" 1
 1363 001a 0FB6      		in __tmp_reg__,__SREG__
 1364 001c F894      		cli
 1365 001e 8093 6100 		sts 97, r24
 1366 0022 9093 6100 		sts 97, r25
 1367 0026 0FBE      		out __SREG__, __tmp_reg__
 1368               	 ;  0 "" 2
 1369               	/* #NOAPP */
 1370               	.LBE33:
 1371               	.LBE32:
 1372               	.LSM230:
 1373 0028 0E94 0000 		call init
 1374               	.L115:
 1375               	.LSM231:
 1376 002c 0E94 0000 		call poll
 1377 0030 00C0      		rjmp .L115
 1378               	.LFE7:
 1380               	.global	layer2
 1381               		.data
 1384               	layer2:
 1385 0000 29        		.byte	41
 1386 0001 F1        		.byte	-15
 1387 0002 90        		.byte	-112
 1388 0003 2B        		.byte	43
 1389 0004 35        		.byte	53
 1390 0005 FD        		.byte	-3
 1391 0006 14        		.byte	20
 1392 0007 09        		.byte	9
 1393 0008 0D        		.byte	13
 1394 0009 1E        		.byte	30
 1395 000a 84        		.byte	-124
 1396 000b 38        		.byte	56
 1397 000c 1C        		.byte	28
 1398 000d 06        		.byte	6
 1399 000e 1F        		.byte	31
 1400 000f 84        		.byte	-124
 1401 0010 16        		.byte	22
 1402 0011 19        		.byte	25
 1403 0012 18        		.byte	24
 1404 0013 20        		.byte	32
 1405 0014 81        		.byte	-127
 1406 0015 10        		.byte	16
 1407 0016 04        		.byte	4
 1408 0017 0E        		.byte	14
 1409 0018 21        		.byte	33
 1410 0019 82        		.byte	-126
 1411 001a 0C        		.byte	12
 1412 001b 13        		.byte	19
 1413 001c 08        		.byte	8
 1414 001d 22        		.byte	34
 1415 001e 2C        		.byte	44
 1416 001f 17        		.byte	23
 1417 0020 15        		.byte	21
 1418 0021 11        		.byte	17
 1419 0022 23        		.byte	35
 1420 0023 FF        		.byte	-1
 1421 0024 1B        		.byte	27
 1422 0025 12        		.byte	18
 1423 0026 0A        		.byte	10
 1424 0027 24        		.byte	36
 1425 0028 C0        		.byte	-64
 1426 0029 05        		.byte	5
 1427 002a 0F        		.byte	15
 1428 002b 0B        		.byte	11
 1429 002c 25        		.byte	37
 1430 002d 31        		.byte	49
 1431 002e 36        		.byte	54
 1432 002f 07        		.byte	7
 1433 0030 1A        		.byte	26
 1434 0031 26        		.byte	38
 1435 0032 30        		.byte	48
 1436 0033 37        		.byte	55
 1437 0034 33        		.byte	51
 1438 0035 1D        		.byte	29
 1439 0036 27        		.byte	39
 1440 0037 2E        		.byte	46
 1441 0038 F2        		.byte	-14
 1442 0039 34        		.byte	52
 1443 003a 2F        		.byte	47
 1444 003b 2D        		.byte	45
 1445               	.global	layout
 1448               	layout:
 1449 003c 0000      		.word	layer2
 1450               	.global	mac_mode
 1451               	.global	mac_mode
 1452               		.section .bss
 1455               	mac_mode:
 1456 0000 00        		.skip 1,0
 1457               	.global	layer1
 1458               		.data
 1461               	layer1:
 1462 003e 29        		.byte	41
 1463 003f F1        		.byte	-15
 1464 0040 90        		.byte	-112
 1465 0041 2B        		.byte	43
 1466 0042 35        		.byte	53
 1467 0043 FD        		.byte	-3
 1468 0044 1D        		.byte	29
 1469 0045 04        		.byte	4
 1470 0046 14        		.byte	20
 1471 0047 1E        		.byte	30
 1472 0048 84        		.byte	-124
 1473 0049 1B        		.byte	27
 1474 004a 16        		.byte	22
 1475 004b 1A        		.byte	26
 1476 004c 1F        		.byte	31
 1477 004d 84        		.byte	-124
 1478 004e 06        		.byte	6
 1479 004f 07        		.byte	7
 1480 0050 08        		.byte	8
 1481 0051 20        		.byte	32
 1482 0052 81        		.byte	-127
 1483 0053 19        		.byte	25
 1484 0054 09        		.byte	9
 1485 0055 15        		.byte	21
 1486 0056 21        		.byte	33
 1487 0057 82        		.byte	-126
 1488 0058 05        		.byte	5
 1489 0059 0A        		.byte	10
 1490 005a 17        		.byte	23
 1491 005b 22        		.byte	34
 1492 005c 2C        		.byte	44
 1493 005d 11        		.byte	17
 1494 005e 0B        		.byte	11
 1495 005f 1C        		.byte	28
 1496 0060 23        		.byte	35
 1497 0061 FF        		.byte	-1
 1498 0062 10        		.byte	16
 1499 0063 0D        		.byte	13
 1500 0064 18        		.byte	24
 1501 0065 24        		.byte	36
 1502 0066 C0        		.byte	-64
 1503 0067 36        		.byte	54
 1504 0068 0E        		.byte	14
 1505 0069 0C        		.byte	12
 1506 006a 25        		.byte	37
 1507 006b 31        		.byte	49
 1508 006c 37        		.byte	55
 1509 006d 0F        		.byte	15
 1510 006e 12        		.byte	18
 1511 006f 26        		.byte	38
 1512 0070 30        		.byte	48
 1513 0071 38        		.byte	56
 1514 0072 33        		.byte	51
 1515 0073 13        		.byte	19
 1516 0074 27        		.byte	39
 1517 0075 2E        		.byte	46
 1518 0076 F2        		.byte	-14
 1519 0077 34        		.byte	52
 1520 0078 2F        		.byte	47
 1521 0079 2D        		.byte	45
 1522               	.global	layer_fn
 1525               	layer_fn:
 1526 007a FB        		.byte	-5
 1527 007b F1        		.byte	-15
 1528 007c 90        		.byte	-112
 1529 007d 2B        		.byte	43
 1530 007e 46        		.byte	70
 1531 007f FD        		.byte	-3
 1532 0080 00        		.byte	0
 1533 0081 00        		.byte	0
 1534 0082 00        		.byte	0
 1535 0083 3A        		.byte	58
 1536 0084 84        		.byte	-124
 1537 0085 00        		.byte	0
 1538 0086 00        		.byte	0
 1539 0087 00        		.byte	0
 1540 0088 3B        		.byte	59
 1541 0089 84        		.byte	-124
 1542 008a 00        		.byte	0
 1543 008b 00        		.byte	0
 1544 008c 00        		.byte	0
 1545 008d 3C        		.byte	60
 1546 008e 81        		.byte	-127
 1547 008f 00        		.byte	0
 1548 0090 00        		.byte	0
 1549 0091 00        		.byte	0
 1550 0092 3D        		.byte	61
 1551 0093 82        		.byte	-126
 1552 0094 00        		.byte	0
 1553 0095 00        		.byte	0
 1554 0096 35        		.byte	53
 1555 0097 3E        		.byte	62
 1556 0098 FC        		.byte	-4
 1557 0099 2A        		.byte	42
 1558 009a 28        		.byte	40
 1559 009b 28        		.byte	40
 1560 009c 3F        		.byte	63
 1561 009d FF        		.byte	-1
 1562 009e 4C        		.byte	76
 1563 009f 50        		.byte	80
 1564 00a0 4A        		.byte	74
 1565 00a1 40        		.byte	64
 1566 00a2 FE        		.byte	-2
 1567 00a3 49        		.byte	73
 1568 00a4 51        		.byte	81
 1569 00a5 52        		.byte	82
 1570 00a6 41        		.byte	65
 1571 00a7 00        		.byte	0
 1572 00a8 00        		.byte	0
 1573 00a9 4F        		.byte	79
 1574 00aa 4D        		.byte	77
 1575 00ab 42        		.byte	66
 1576 00ac 47        		.byte	71
 1577 00ad 00        		.byte	0
 1578 00ae 4E        		.byte	78
 1579 00af 4B        		.byte	75
 1580 00b0 43        		.byte	67
 1581 00b1 45        		.byte	69
 1582 00b2 F2        		.byte	-14
 1583 00b3 48        		.byte	72
 1584 00b4 29        		.byte	41
 1585 00b5 44        		.byte	68
 1586               	.global	layer_fnlock
 1589               	layer_fnlock:
 1590 00b6 29        		.byte	41
 1591 00b7 82        		.byte	-126
 1592 00b8 90        		.byte	-112
 1593 00b9 2B        		.byte	43
 1594 00ba 35        		.byte	53
 1595 00bb FD        		.byte	-3
 1596 00bc 00        		.byte	0
 1597 00bd 4E        		.byte	78
 1598 00be 4B        		.byte	75
 1599 00bf 1E        		.byte	30
 1600 00c0 84        		.byte	-124
 1601 00c1 00        		.byte	0
 1602 00c2 50        		.byte	80
 1603 00c3 4A        		.byte	74
 1604 00c4 1F        		.byte	31
 1605 00c5 84        		.byte	-124
 1606 00c6 00        		.byte	0
 1607 00c7 51        		.byte	81
 1608 00c8 52        		.byte	82
 1609 00c9 20        		.byte	32
 1610 00ca 81        		.byte	-127
 1611 00cb 00        		.byte	0
 1612 00cc 4F        		.byte	79
 1613 00cd 4D        		.byte	77
 1614 00ce 21        		.byte	33
 1615 00cf 2C        		.byte	44
 1616 00d0 00        		.byte	0
 1617 00d1 28        		.byte	40
 1618 00d2 35        		.byte	53
 1619 00d3 22        		.byte	34
 1620 00d4 2C        		.byte	44
 1621 00d5 62        		.byte	98
 1622 00d6 55        		.byte	85
 1623 00d7 54        		.byte	84
 1624 00d8 23        		.byte	35
 1625 00d9 FF        		.byte	-1
 1626 00da 59        		.byte	89
 1627 00db 5C        		.byte	92
 1628 00dc 5F        		.byte	95
 1629 00dd 24        		.byte	36
 1630 00de C0        		.byte	-64
 1631 00df 5A        		.byte	90
 1632 00e0 5D        		.byte	93
 1633 00e1 60        		.byte	96
 1634 00e2 25        		.byte	37
 1635 00e3 28        		.byte	40
 1636 00e4 5B        		.byte	91
 1637 00e5 5E        		.byte	94
 1638 00e6 61        		.byte	97
 1639 00e7 26        		.byte	38
 1640 00e8 53        		.byte	83
 1641 00e9 63        		.byte	99
 1642 00ea 57        		.byte	87
 1643 00eb 56        		.byte	86
 1644 00ec 27        		.byte	39
 1645 00ed 2E        		.byte	46
 1646 00ee A0        		.byte	-96
 1647 00ef 28        		.byte	40
 1648 00f0 29        		.byte	41
 1649 00f1 2D        		.byte	45
 1650               	.global	row_port
 1653               	row_port:
 1654 00f2 2800      		.word	40
 1655 00f4 2800      		.word	40
 1656 00f6 2800      		.word	40
 1657 00f8 2800      		.word	40
 1658 00fa 2800      		.word	40
 1659               	.global	row_bit
 1662               	row_bit:
 1663 00fc 80        		.byte	-128
 1664 00fd 40        		.byte	64
 1665 00fe 20        		.byte	32
 1666 00ff 10        		.byte	16
 1667 0100 04        		.byte	4
 1668               	.global	col_pin
 1671               	col_pin:
 1672 0101 2900      		.word	41
 1673 0103 2900      		.word	41
 1674 0105 2900      		.word	41
 1675 0107 2900      		.word	41
 1676 0109 2900      		.word	41
 1677 010b 2900      		.word	41
 1678 010d 2300      		.word	35
 1679 010f 2300      		.word	35
 1680 0111 2300      		.word	35
 1681 0113 2300      		.word	35
 1682 0115 2300      		.word	35
 1683 0117 2300      		.word	35
 1684               	.global	col_bit
 1687               	col_bit:
 1688 0119 40        		.byte	64
 1689 011a 20        		.byte	32
 1690 011b 08        		.byte	8
 1691 011c 04        		.byte	4
 1692 011d 02        		.byte	2
 1693 011e 01        		.byte	1
 1694 011f 80        		.byte	-128
 1695 0120 40        		.byte	64
 1696 0121 20        		.byte	32
 1697 0122 10        		.byte	16
 1698 0123 02        		.byte	2
 1699 0124 01        		.byte	1
 1700               	.global	queue
 1703               	queue:
 1704 0125 FF        		.byte	-1
 1705 0126 FF        		.byte	-1
 1706 0127 FF        		.byte	-1
 1707 0128 FF        		.byte	-1
 1708 0129 FF        		.byte	-1
 1709 012a FF        		.byte	-1
 1710 012b FF        		.byte	-1
 1711               	.global	mod_keys
 1712               	.global	mod_keys
 1713               		.section .bss
 1716               	mod_keys:
 1717 0001 00        		.skip 1,0
 1718               	.global	prev_layer
 1719               	.global	prev_layer
 1722               	prev_layer:
 1723 0002 0000      		.skip 2,0
 1724               	.global	turbo_repeat
 1725               		.data
 1728               	turbo_repeat:
 1729 012c 01        		.byte	1
 1730               	.global	last_key
 1731               	.global	last_key
 1732               		.section .bss
 1735               	last_key:
 1736 0004 00        		.skip 1,0
 1737               	.global	press_time
 1738               	.global	press_time
 1741               	press_time:
 1742 0005 0000      		.skip 2,0
 1743               	.global	press_time2
 1744               	.global	press_time2
 1747               	press_time2:
 1748 0007 0000      		.skip 2,0
 1749               	.global	release_time
 1750               	.global	release_time
 1753               	release_time:
 1754 0009 0000      		.skip 2,0
 1755               	.global	repeat_time
 1756               	.global	repeat_time
 1759               	repeat_time:
 1760 000b 0000      		.skip 2,0
 1761               		.comm pressed,60,1
 1850               	.Letext0:
DEFINED SYMBOLS
                            *ABS*:00000000 catboard.c
     /tmp/ccgtF2Di.s:2      *ABS*:0000003f __SREG__
     /tmp/ccgtF2Di.s:3      *ABS*:0000003e __SP_H__
     /tmp/ccgtF2Di.s:4      *ABS*:0000003d __SP_L__
     /tmp/ccgtF2Di.s:5      *ABS*:00000034 __CCP__
     /tmp/ccgtF2Di.s:6      *ABS*:00000000 __tmp_reg__
     /tmp/ccgtF2Di.s:7      *ABS*:00000001 __zero_reg__
     /tmp/ccgtF2Di.s:19     .text.change_layout:00000000 change_layout
     /tmp/ccgtF2Di.s:1455   .bss:00000000 mac_mode
     /tmp/ccgtF2Di.s:92     .text.init:00000000 init
                            *COM*:0000003c pressed
     /tmp/ccgtF2Di.s:167    .text.get_code:00000000 get_code
     /tmp/ccgtF2Di.s:1525   .data:0000007a layer_fn
     /tmp/ccgtF2Di.s:1448   .data:0000003c layout
     /tmp/ccgtF2Di.s:1461   .data:0000003e layer1
     /tmp/ccgtF2Di.s:240    .text.send:00000000 send
     /tmp/ccgtF2Di.s:1703   .data:00000125 queue
     /tmp/ccgtF2Di.s:1716   .bss:00000001 mod_keys
     /tmp/ccgtF2Di.s:287    .text.key_release:00000000 key_release
     /tmp/ccgtF2Di.s:1722   .bss:00000002 prev_layer
     /tmp/ccgtF2Di.s:1735   .bss:00000004 last_key
     /tmp/ccgtF2Di.s:1384   .data:00000000 layer2
     /tmp/ccgtF2Di.s:1747   .bss:00000007 press_time2
     /tmp/ccgtF2Di.s:1753   .bss:00000009 release_time
     /tmp/ccgtF2Di.s:1741   .bss:00000005 press_time
     /tmp/ccgtF2Di.s:1759   .bss:0000000b repeat_time
     /tmp/ccgtF2Di.s:589    .text.key_press:00000000 key_press
     /tmp/ccgtF2Di.s:1589   .data:000000b6 layer_fnlock
     /tmp/ccgtF2Di.s:1728   .data:0000012c turbo_repeat
     /tmp/ccgtF2Di.s:1021   .text.repeat_tick:00000000 repeat_tick
     /tmp/ccgtF2Di.s:1169   .text.poll:00000000 poll
     /tmp/ccgtF2Di.s:1653   .data:000000f2 row_port
     /tmp/ccgtF2Di.s:1662   .data:000000fc row_bit
     /tmp/ccgtF2Di.s:1671   .data:00000101 col_pin
     /tmp/ccgtF2Di.s:1687   .data:00000119 col_bit
     /tmp/ccgtF2Di.s:1332   .text.main:00000000 main

UNDEFINED SYMBOLS
keyboard_modifier_keys
keyboard_keys
usb_keyboard_send
usb_keyboard_press
usb_init
usb_configured
__do_copy_data
__do_clear_bss
