   1               		.file	"catboard.c"
   2               	__SREG__ = 0x3f
   3               	__SP_H__ = 0x3e
   4               	__SP_L__ = 0x3d
   5               	__CCP__ = 0x34
   6               	__tmp_reg__ = 0
   7               	__zero_reg__ = 1
  15               	.Ltext0:
  16               		.section	.text.change_layout,"ax",@progbits
  17               	.global	change_layout
  19               	change_layout:
  20               	.LFB12:
  21               	.LSM0:
  22               	/* prologue: function */
  23               	/* frame size = 0 */
  24               	/* stack size = 0 */
  25               	.L__stack_usage = 0
  26               	.LSM1:
  27 0000 84E0      		ldi r24,lo8(4)
  28 0002 8093 0000 		sts keyboard_modifier_keys,r24
  29               	.LSM2:
  30 0006 1092 0000 		sts keyboard_keys,__zero_reg__
  31               	.LSM3:
  32 000a 0E94 0000 		call usb_keyboard_send
  33               	.LVL0:
  34               	.LBB17:
  35               	.LBB18:
  36               	.LSM4:
  37 000e 8FEF      		 ldi r24,lo8(159999)
  38 0010 90E7      	    ldi r25,hi8(159999)
  39 0012 A2E0      	    ldi r26,hlo8(159999)
  40 0014 8150      	    1:subi r24,1
  41 0016 9040      	    sbci r25,0
  42 0018 A040      	    sbci r26,0
  43 001a 01F4      	    brne 1b
  44 001c 00C0      		rjmp .
  45 001e 0000      		nop
  46               	.LBE18:
  47               	.LBE17:
  48               	.LSM5:
  49 0020 80E0      		ldi r24,lo8(0)
  50 0022 66E0      		ldi r22,lo8(6)
  51 0024 0E94 0000 		call usb_keyboard_press
  52               	/* epilogue start */
  53               	.LSM6:
  54 0028 0895      		ret
  55               	.LFE12:
  57               		.section	.text.init,"ax",@progbits
  58               	.global	init
  60               	init:
  61               	.LFB8:
  62               	.LSM7:
  63               	/* prologue: function */
  64               	/* frame size = 0 */
  65               	/* stack size = 0 */
  66               	.L__stack_usage = 0
  67               	.LSM8:
  68 0000 80E8      		ldi r24,lo8(-128)
  69 0002 8093 6100 		sts 97,r24
  70 0006 1092 6100 		sts 97,__zero_reg__
  71               	.LSM9:
  72 000a 14B8      		out 36-32,__zero_reg__
  73 000c 94EF      		ldi r25,lo8(-12)
  74 000e 97B9      		out 39-32,r25
  75 0010 1AB8      		out 42-32,__zero_reg__
  76               	.LSM10:
  77 0012 8FEF      		ldi r24,lo8(-1)
  78 0014 85B9      		out 37-32,r24
  79 0016 98B9      		out 40-32,r25
  80 0018 8BB9      		out 43-32,r24
  81               	.LSM11:
  82 001a 549A      		sbi 42-32,4
  83               	.LSM12:
  84 001c 5C9A      		sbi 43-32,4
  85               	.LVL1:
  86 001e E0E0      		ldi r30,lo8(pressed)
  87 0020 F0E0      		ldi r31,hi8(pressed)
  88               	.LVL2:
  89               	.L3:
  90               	.LBB19:
  91               	.LSM13:
  92 0022 1192      		st Z+,__zero_reg__
  93               	.LSM14:
  94 0024 80E0      		ldi r24,hi8(pressed+60)
  95 0026 E030      		cpi r30,lo8(pressed+60)
  96 0028 F807      		cpc r31,r24
  97 002a 01F4      		brne .L3
  98               	.LBE19:
  99               	.LSM15:
 100 002c 0E94 0000 		call usb_init
 101               	.LSM16:
 102 0030 5C98      		cbi 43-32,4
 103               	.L4:
 104               	.LSM17:
 105 0032 0E94 0000 		call usb_configured
 106 0036 8823      		tst r24
 107 0038 01F0      		breq .L4
 108               	.LSM18:
 109 003a 5C9A      		sbi 43-32,4
 110               	.LVL3:
 111               	.LBB20:
 112               	.LBB21:
 113               	.LSM19:
 114 003c 8FEF      		 ldi r24,lo8(3199999)
 115 003e 93ED      	    ldi r25,hi8(3199999)
 116 0040 A0E3      	    ldi r26,hlo8(3199999)
 117 0042 8150      	    1:subi r24,1
 118 0044 9040      	    sbci r25,0
 119 0046 A040      	    sbci r26,0
 120 0048 01F4      	    brne 1b
 121 004a 00C0      		rjmp .
 122 004c 0000      		nop
 123               	.LBE21:
 124               	.LBE20:
 125               	.LSM20:
 126 004e 5C98      		cbi 43-32,4
 127               	/* epilogue start */
 128               	.LSM21:
 129 0050 0895      		ret
 130               	.LFE8:
 132               		.section	.text.get_code,"ax",@progbits
 133               	.global	get_code
 135               	get_code:
 136               	.LFB14:
 137               	.LSM22:
 138               	.LVL4:
 139               	/* prologue: function */
 140               	/* frame size = 0 */
 141               	/* stack size = 0 */
 142               	.L__stack_usage = 0
 143               	.LSM23:
 144 0000 8C33      		cpi r24,lo8(60)
 145 0002 00F4      		brsh .L11
 146               	.LSM24:
 147 0004 282F      		mov r18,r24
 148 0006 30E0      		ldi r19,lo8(0)
 149 0008 F901      		movw r30,r18
 150 000a E050      		subi r30,lo8(-(pressed))
 151 000c F040      		sbci r31,hi8(-(pressed))
 152 000e 9081      		ld r25,Z
 153 0010 9130      		cpi r25,lo8(1)
 154 0012 01F4      		brne .L9
 155               	.LVL5:
 156               	.LSM25:
 157 0014 2050      		subi r18,lo8(-(layer_fn))
 158 0016 3040      		sbci r19,hi8(-(layer_fn))
 159               	.LVL6:
 160 0018 F901      		movw r30,r18
 161 001a 8081      		ld r24,Z
 162               	.LVL7:
 163 001c 1816      		cp __zero_reg__,r24
 164 001e 04F0      		brlt .L8
 165               	.LSM26:
 166 0020 80E0      		ldi r24,lo8(0)
 167 0022 0895      		ret
 168               	.LVL8:
 169               	.L9:
 170               	.LSM27:
 171 0024 4091 0000 		lds r20,layout
 172 0028 5091 0000 		lds r21,layout+1
 173 002c F0E0      		ldi r31,hi8(layer_fn)
 174 002e 4030      		cpi r20,lo8(layer_fn)
 175 0030 5F07      		cpc r21,r31
 176 0032 01F0      		breq .L10
 177               	.LSM28:
 178 0034 9230      		cpi r25,lo8(2)
 179 0036 01F4      		brne .L10
 180               	.LSM29:
 181 0038 2050      		subi r18,lo8(-(layer1))
 182 003a 3040      		sbci r19,hi8(-(layer1))
 183               	.LVL9:
 184 003c F901      		movw r30,r18
 185 003e 00C0      		rjmp .L12
 186               	.L10:
 187               	.LSM30:
 188 0040 480F      		add r20,r24
 189 0042 511D      		adc r21,__zero_reg__
 190 0044 FA01      		movw r30,r20
 191               	.L12:
 192 0046 8081      		ld r24,Z
 193               	.LVL10:
 194 0048 0895      		ret
 195               	.LVL11:
 196               	.L11:
 197               	.LSM31:
 198 004a 80E0      		ldi r24,lo8(0)
 199               	.LVL12:
 200               	.L8:
 201               	.LSM32:
 202 004c 0895      		ret
 203               	.LFE14:
 205               		.section	.text.send,"ax",@progbits
 206               	.global	send
 208               	send:
 209               	.LFB13:
 210               	.LSM33:
 211 0000 0F93      		push r16
 212 0002 1F93      		push r17
 213 0004 CF93      		push r28
 214 0006 DF93      		push r29
 215               	/* prologue: function */
 216               	/* frame size = 0 */
 217               	/* stack size = 4 */
 218               	.L__stack_usage = 4
 219               	.LVL13:
 220               	.LSM34:
 221 0008 C0E0      		ldi r28,lo8(queue)
 222 000a D0E0      		ldi r29,hi8(queue)
 223 000c 00E0      		ldi r16,lo8(keyboard_keys)
 224 000e 10E0      		ldi r17,hi8(keyboard_keys)
 225               	.LVL14:
 226               	.L14:
 227               	.LSM35:
 228 0010 8991      		ld r24,Y+
 229 0012 0E94 0000 		call get_code
 230 0016 F801      		movw r30,r16
 231 0018 8193      		st Z+,r24
 232 001a 8F01      		movw r16,r30
 233               	.LSM36:
 234 001c F0E0      		ldi r31,hi8(queue+6)
 235 001e C030      		cpi r28,lo8(queue+6)
 236 0020 DF07      		cpc r29,r31
 237 0022 01F4      		brne .L14
 238               	.LSM37:
 239 0024 8091 0000 		lds r24,mod_keys
 240 0028 8093 0000 		sts keyboard_modifier_keys,r24
 241               	.LSM38:
 242 002c 0E94 0000 		call usb_keyboard_send
 243               	/* epilogue start */
 244               	.LSM39:
 245 0030 DF91      		pop r29
 246 0032 CF91      		pop r28
 247 0034 1F91      		pop r17
 248 0036 0F91      		pop r16
 249 0038 0895      		ret
 250               	.LFE13:
 252               		.section	.text.key_release,"ax",@progbits
 253               	.global	key_release
 255               	key_release:
 256               	.LFB11:
 257               	.LSM40:
 258               	.LVL15:
 259 0000 DF93      		push r29
 260 0002 CF93      		push r28
 261 0004 0F92      		push __tmp_reg__
 262 0006 CDB7      		in r28,__SP_L__
 263 0008 DEB7      		in r29,__SP_H__
 264               	/* prologue: function */
 265               	/* frame size = 1 */
 266               	/* stack size = 3 */
 267               	.L__stack_usage = 3
 268               	.LSM41:
 269 000a 282F      		mov r18,r24
 270 000c 30E0      		ldi r19,lo8(0)
 271 000e F901      		movw r30,r18
 272 0010 E050      		subi r30,lo8(-(pressed))
 273 0012 F040      		sbci r31,hi8(-(pressed))
 274 0014 9081      		ld r25,Z
 275               	.LVL16:
 276               	.LSM42:
 277 0016 1082      		st Z,__zero_reg__
 278               	.LSM43:
 279 0018 9130      		cpi r25,lo8(1)
 280 001a 01F4      		brne .L17
 281               	.LVL17:
 282               	.LSM44:
 283 001c 2050      		subi r18,lo8(-(layer_fn))
 284 001e 3040      		sbci r19,hi8(-(layer_fn))
 285               	.LVL18:
 286 0020 F901      		movw r30,r18
 287               	.LVL19:
 288 0022 2081      		ld r18,Z
 289 0024 27FF      		sbrs r18,7
 290 0026 00C0      		rjmp .L18
 291               	.LSM45:
 292 0028 922F      		mov r25,r18
 293               	.LVL20:
 294 002a 00C0      		rjmp .L36
 295               	.LVL21:
 296               	.L18:
 297               	.LSM46:
 298 002c 2091 0000 		lds r18,layout
 299 0030 3091 0000 		lds r19,layout+1
 300 0034 F0E0      		ldi r31,hi8(layer_fn)
 301 0036 2030      		cpi r18,lo8(layer_fn)
 302 0038 3F07      		cpc r19,r31
 303 003a 01F4      		brne .L20
 304               	.L17:
 305               	.LSM47:
 306 003c E091 0000 		lds r30,layout
 307 0040 F091 0000 		lds r31,layout+1
 308 0044 E80F      		add r30,r24
 309 0046 F11D      		adc r31,__zero_reg__
 310 0048 2081      		ld r18,Z
 311 004a 213F      		cpi r18,lo8(-15)
 312 004c 00F0      		brlo .L21
 313               	.LSM48:
 314 004e 2D3F      		cpi r18,lo8(-3)
 315 0050 01F0      		breq .+2
 316 0052 00C0      		rjmp .L16
 317               	.LSM49:
 318 0054 9330      		cpi r25,lo8(3)
 319 0056 01F4      		brne .+2
 320 0058 00C0      		rjmp .L16
 321               	.LSM50:
 322 005a 8091 0000 		lds r24,mod_keys
 323               	.LVL22:
 324 005e 8B7F      		andi r24,lo8(-5)
 325 0060 00C0      		rjmp .L37
 326               	.LVL23:
 327               	.L21:
 328               	.LSM51:
 329 0062 9130      		cpi r25,lo8(1)
 330 0064 01F4      		brne .L22
 331               	.L20:
 332               	.LSM52:
 333 0066 2091 0000 		lds r18,layout
 334 006a 3091 0000 		lds r19,layout+1
 335 006e 40E0      		ldi r20,hi8(layer_fn)
 336 0070 2030      		cpi r18,lo8(layer_fn)
 337 0072 3407      		cpc r19,r20
 338 0074 01F4      		brne .L31
 339               	.L22:
 340               	.LSM53:
 341 0076 E091 0000 		lds r30,layout
 342 007a F091 0000 		lds r31,layout+1
 343 007e E80F      		add r30,r24
 344 0080 F11D      		adc r31,__zero_reg__
 345 0082 9081      		ld r25,Z
 346               	.LVL24:
 347 0084 97FF      		sbrs r25,7
 348 0086 00C0      		rjmp .L31
 349               	.L36:
 350               	.LSM54:
 351 0088 9F77      		andi r25,lo8(127)
 352 008a 9095      		com r25
 353 008c 8091 0000 		lds r24,mod_keys
 354               	.LVL25:
 355 0090 8923      		and r24,r25
 356               	.L37:
 357 0092 8093 0000 		sts mod_keys,r24
 358               	.LSM55:
 359 0096 0E94 0000 		call send
 360 009a 00C0      		rjmp .L16
 361               	.LVL26:
 362               	.L31:
 363               	.LSM56:
 364 009c 90E0      		ldi r25,lo8(0)
 365               	.L32:
 366               	.LSM57:
 367 009e E92F      		mov r30,r25
 368 00a0 F0E0      		ldi r31,lo8(0)
 369 00a2 E050      		subi r30,lo8(-(queue))
 370 00a4 F040      		sbci r31,hi8(-(queue))
 371 00a6 2081      		ld r18,Z
 372 00a8 2817      		cp r18,r24
 373 00aa 01F0      		breq .L34
 374               	.LSM58:
 375 00ac 9F5F      		subi r25,lo8(-(1))
 376               	.LVL27:
 377 00ae 9630      		cpi r25,lo8(6)
 378 00b0 01F4      		brne .L32
 379 00b2 00C0      		rjmp .L34
 380               	.L27:
 381               	.LSM59:
 382 00b4 E92F      		mov r30,r25
 383 00b6 F0E0      		ldi r31,lo8(0)
 384 00b8 E050      		subi r30,lo8(-(queue))
 385 00ba F040      		sbci r31,hi8(-(queue))
 386 00bc 2181      		ldd r18,Z+1
 387 00be 2083      		st Z,r18
 388               	.LSM60:
 389 00c0 9F5F      		subi r25,lo8(-(1))
 390               	.LVL28:
 391               	.L34:
 392               	.LSM61:
 393 00c2 9630      		cpi r25,lo8(6)
 394 00c4 00F0      		brlo .L27
 395               	.LSM62:
 396 00c6 8983      		std Y+1,r24
 397 00c8 0E94 0000 		call send
 398               	.LVL29:
 399               	.LSM63:
 400 00cc 9091 0000 		lds r25,last_key
 401 00d0 8981      		ldd r24,Y+1
 402 00d2 9817      		cp r25,r24
 403 00d4 01F4      		brne .L28
 404               	.LSM64:
 405 00d6 1092 0000 		sts press_time2+1,__zero_reg__
 406 00da 1092 0000 		sts press_time2,__zero_reg__
 407               	.LSM65:
 408 00de 81E0      		ldi r24,lo8(1)
 409 00e0 90E0      		ldi r25,hi8(1)
 410 00e2 9093 0000 		sts release_time+1,r25
 411 00e6 8093 0000 		sts release_time,r24
 412 00ea 00C0      		rjmp .L35
 413               	.L28:
 414               	.LSM66:
 415 00ec 1092 0000 		sts press_time+1,__zero_reg__
 416 00f0 1092 0000 		sts press_time,__zero_reg__
 417               	.LSM67:
 418 00f4 1092 0000 		sts press_time2+1,__zero_reg__
 419 00f8 1092 0000 		sts press_time2,__zero_reg__
 420               	.LSM68:
 421 00fc 1092 0000 		sts release_time+1,__zero_reg__
 422 0100 1092 0000 		sts release_time,__zero_reg__
 423               	.L35:
 424               	.LSM69:
 425 0104 1092 0000 		sts repeat_time+1,__zero_reg__
 426 0108 1092 0000 		sts repeat_time,__zero_reg__
 427               	.L16:
 428               	/* epilogue start */
 429               	.LSM70:
 430 010c 0F90      		pop __tmp_reg__
 431 010e CF91      		pop r28
 432 0110 DF91      		pop r29
 433 0112 0895      		ret
 434               	.LFE11:
 436               		.section	.text.key_press,"ax",@progbits
 437               	.global	key_press
 439               	key_press:
 440               	.LFB10:
 441               	.LSM71:
 442               	.LVL30:
 443 0000 DF93      		push r29
 444 0002 CF93      		push r28
 445 0004 0F92      		push __tmp_reg__
 446 0006 CDB7      		in r28,__SP_L__
 447 0008 DEB7      		in r29,__SP_H__
 448               	/* prologue: function */
 449               	/* frame size = 1 */
 450               	/* stack size = 3 */
 451               	.L__stack_usage = 3
 452               	.LSM72:
 453 000a 9091 0000 		lds r25,mod_keys
 454               	.LVL31:
 455               	.LSM73:
 456 000e 482F      		mov r20,r24
 457 0010 50E0      		ldi r21,lo8(0)
 458 0012 2091 0000 		lds r18,pressed+35
 459 0016 2223      		tst r18
 460 0018 01F4      		brne .L59
 461               	.LVL32:
 462               	.LSM74:
 463 001a 292F      		mov r18,r25
 464 001c 2575      		andi r18,lo8(85)
 465               	.LSM75:
 466 001e 01F0      		breq .L60
 467               	.LSM76:
 468 0020 22E0      		ldi r18,lo8(2)
 469 0022 00C0      		rjmp .L39
 470               	.L59:
 471 0024 21E0      		ldi r18,lo8(1)
 472 0026 00C0      		rjmp .L39
 473               	.L60:
 474 0028 2FEF      		ldi r18,lo8(-1)
 475               	.L39:
 476               	.LSM77:
 477 002a FA01      		movw r30,r20
 478 002c E050      		subi r30,lo8(-(pressed))
 479 002e F040      		sbci r31,hi8(-(pressed))
 480 0030 2083      		st Z,r18
 481               	.LSM78:
 482 0032 7091 0000 		lds r23,pressed+35
 483 0036 7723      		tst r23
 484 0038 01F0      		breq .L40
 485               	.LSM79:
 486 003a FA01      		movw r30,r20
 487 003c E050      		subi r30,lo8(-(layer_fn))
 488 003e F040      		sbci r31,hi8(-(layer_fn))
 489 0040 2081      		ld r18,Z
 490 0042 27FF      		sbrs r18,7
 491 0044 00C0      		rjmp .L41
 492               	.LSM80:
 493 0046 213F      		cpi r18,lo8(-15)
 494 0048 00F0      		brlo .L42
 495               	.LSM81:
 496 004a 2D3F      		cpi r18,lo8(-3)
 497 004c 01F4      		brne .L43
 498               	.LSM82:
 499 004e 8BE2      		ldi r24,lo8(43)
 500 0050 64E0      		ldi r22,lo8(4)
 501 0052 0E94 0000 		call usb_keyboard_press
 502               	.LVL33:
 503 0056 00C0      		rjmp .L38
 504               	.LVL34:
 505               	.L43:
 506               	.LSM83:
 507 0058 2E3F      		cpi r18,lo8(-2)
 508 005a 01F0      		breq .+2
 509 005c 00C0      		rjmp .L38
 510               	.LSM84:
 511 005e 8091 0000 		lds r24,prev_layer
 512 0062 9091 0000 		lds r25,prev_layer+1
 513 0066 0097      		sbiw r24,0
 514 0068 01F0      		breq .+2
 515 006a 00C0      		rjmp .L62
 516               	.L45:
 517               	.LSM85:
 518 006c 8091 0000 		lds r24,layout
 519 0070 9091 0000 		lds r25,layout+1
 520 0074 9093 0000 		sts prev_layer+1,r25
 521 0078 8093 0000 		sts prev_layer,r24
 522 007c 00C0      		rjmp .L64
 523               	.L42:
 524               	.LSM86:
 525 007e 2F77      		andi r18,lo8(127)
 526 0080 292B      		or r18,r25
 527 0082 2093 0000 		sts mod_keys,r18
 528 0086 00C0      		rjmp .L65
 529               	.L41:
 530               	.LSM87:
 531 0088 2091 0000 		lds r18,layout
 532 008c 3091 0000 		lds r19,layout+1
 533 0090 60E0      		ldi r22,hi8(layer_fn)
 534 0092 2030      		cpi r18,lo8(layer_fn)
 535 0094 3607      		cpc r19,r22
 536 0096 01F0      		breq .+2
 537 0098 00C0      		rjmp .L46
 538               	.L40:
 539               	.LSM88:
 540 009a 2091 0000 		lds r18,layout
 541 009e 3091 0000 		lds r19,layout+1
 542 00a2 F901      		movw r30,r18
 543 00a4 E80F      		add r30,r24
 544 00a6 F11D      		adc r31,__zero_reg__
 545 00a8 6081      		ld r22,Z
 546 00aa 613F      		cpi r22,lo8(-15)
 547 00ac 00F4      		brsh .+2
 548 00ae 00C0      		rjmp .L47
 549               	.LSM89:
 550 00b0 613F      		cpi r22,lo8(-15)
 551 00b2 01F4      		brne .L48
 552               	.LSM90:
 553 00b4 80E0      		ldi r24,hi8(layer1)
 554 00b6 2030      		cpi r18,lo8(layer1)
 555 00b8 3807      		cpc r19,r24
 556 00ba 01F0      		breq .L49
 557               	.LBB22:
 558               	.LSM91:
 559 00bc 80E0      		ldi r24,lo8(layer1)
 560 00be 90E0      		ldi r25,hi8(layer1)
 561 00c0 00C0      		rjmp .L66
 562               	.L48:
 563               	.LBE22:
 564               	.LSM92:
 565 00c2 623F      		cpi r22,lo8(-14)
 566 00c4 01F4      		brne .L50
 567               	.LSM93:
 568 00c6 90E0      		ldi r25,hi8(layer2)
 569 00c8 2030      		cpi r18,lo8(layer2)
 570 00ca 3907      		cpc r19,r25
 571               	.LVL35:
 572 00cc 01F0      		breq .L49
 573               	.LBB23:
 574               	.LSM94:
 575 00ce 80E0      		ldi r24,lo8(layer2)
 576 00d0 90E0      		ldi r25,hi8(layer2)
 577               	.L66:
 578 00d2 9093 0000 		sts layout+1,r25
 579 00d6 8093 0000 		sts layout,r24
 580               	.LSM95:
 581 00da 0E94 0000 		call change_layout
 582               	.LVL36:
 583               	.LBE23:
 584               	.LSM96:
 585 00de 00C0      		rjmp .L38
 586               	.LVL37:
 587               	.L50:
 588               	.LSM97:
 589 00e0 6D3F      		cpi r22,lo8(-3)
 590 00e2 01F4      		brne .L49
 591               	.LSM98:
 592 00e4 892F      		mov r24,r25
 593 00e6 8474      		andi r24,lo8(68)
 594 00e8 01F4      		brne .L51
 595               	.LSM99:
 596 00ea 9460      		ori r25,lo8(4)
 597               	.LVL38:
 598 00ec 9093 0000 		sts mod_keys,r25
 599 00f0 00C0      		rjmp .L52
 600               	.L51:
 601               	.LSM100:
 602 00f2 4050      		subi r20,lo8(-(pressed))
 603 00f4 5040      		sbci r21,hi8(-(pressed))
 604               	.LVL39:
 605 00f6 83E0      		ldi r24,lo8(3)
 606 00f8 DA01      		movw r26,r20
 607 00fa 8C93      		st X,r24
 608               	.L52:
 609               	.LSM101:
 610 00fc 8091 0000 		lds r24,mod_keys
 611 0100 8093 0000 		sts keyboard_modifier_keys,r24
 612               	.LSM102:
 613 0104 8BE2      		ldi r24,lo8(43)
 614 0106 8093 0000 		sts keyboard_keys,r24
 615               	.LSM103:
 616 010a 0E94 0000 		call usb_keyboard_send
 617               	.LVL40:
 618               	.LBB24:
 619               	.LBB25:
 620               	.LSM104:
 621 010e 8FEF      		 ldi r24,lo8(159999)
 622 0110 90E7      	    ldi r25,hi8(159999)
 623 0112 A2E0      	    ldi r26,hlo8(159999)
 624 0114 8150      	    1:subi r24,1
 625 0116 9040      	    sbci r25,0
 626 0118 A040      	    sbci r26,0
 627 011a 01F4      	    brne 1b
 628 011c 00C0      		rjmp .
 629 011e 0000      		nop
 630 0120 00C0      		rjmp .L65
 631               	.LVL41:
 632               	.L49:
 633               	.LBE25:
 634               	.LBE24:
 635               	.LSM105:
 636 0122 4050      		subi r20,lo8(-(layer_fn))
 637 0124 5040      		sbci r21,hi8(-(layer_fn))
 638               	.LVL42:
 639 0126 DA01      		movw r26,r20
 640 0128 8C91      		ld r24,X
 641 012a 8E3F      		cpi r24,lo8(-2)
 642 012c 01F0      		breq .+2
 643 012e 00C0      		rjmp .L38
 644               	.LSM106:
 645 0130 8091 0000 		lds r24,prev_layer
 646 0134 9091 0000 		lds r25,prev_layer+1
 647 0138 0097      		sbiw r24,0
 648 013a 01F0      		breq .L53
 649               	.L62:
 650               	.LSM107:
 651 013c 9093 0000 		sts layout+1,r25
 652 0140 8093 0000 		sts layout,r24
 653               	.LSM108:
 654 0144 1092 0000 		sts prev_layer+1,__zero_reg__
 655 0148 1092 0000 		sts prev_layer,__zero_reg__
 656               	.LSM109:
 657 014c 5C98      		cbi 43-32,4
 658 014e 00C0      		rjmp .L38
 659               	.L53:
 660               	.LSM110:
 661 0150 3093 0000 		sts prev_layer+1,r19
 662 0154 2093 0000 		sts prev_layer,r18
 663               	.L64:
 664               	.LSM111:
 665 0158 80E0      		ldi r24,lo8(layer_fn)
 666 015a 90E0      		ldi r25,hi8(layer_fn)
 667 015c 9093 0000 		sts layout+1,r25
 668 0160 8093 0000 		sts layout,r24
 669               	.LSM112:
 670 0164 5C9A      		sbi 43-32,4
 671 0166 00C0      		rjmp .L38
 672               	.LVL43:
 673               	.L47:
 674               	.LSM113:
 675 0168 7723      		tst r23
 676 016a 01F0      		breq .L54
 677               	.L46:
 678               	.LSM114:
 679 016c 2091 0000 		lds r18,layout
 680 0170 3091 0000 		lds r19,layout+1
 681 0174 B0E0      		ldi r27,hi8(layer_fn)
 682 0176 2030      		cpi r18,lo8(layer_fn)
 683 0178 3B07      		cpc r19,r27
 684 017a 01F4      		brne .L55
 685               	.L54:
 686               	.LSM115:
 687 017c E091 0000 		lds r30,layout
 688 0180 F091 0000 		lds r31,layout+1
 689 0184 E80F      		add r30,r24
 690 0186 F11D      		adc r31,__zero_reg__
 691 0188 2081      		ld r18,Z
 692 018a 27FD      		sbrc r18,7
 693 018c 00C0      		rjmp .L56
 694               	.L55:
 695               	.LVL44:
 696               	.LSM116:
 697 018e 9091 0000 		lds r25,queue+4
 698 0192 9093 0000 		sts queue+5,r25
 699               	.LVL45:
 700 0196 9091 0000 		lds r25,queue+3
 701 019a 9093 0000 		sts queue+4,r25
 702               	.LVL46:
 703 019e 9091 0000 		lds r25,queue+2
 704 01a2 9093 0000 		sts queue+3,r25
 705               	.LVL47:
 706 01a6 9091 0000 		lds r25,queue+1
 707 01aa 9093 0000 		sts queue+2,r25
 708               	.LVL48:
 709 01ae 9091 0000 		lds r25,queue
 710 01b2 9093 0000 		sts queue+1,r25
 711               	.LVL49:
 712               	.LSM117:
 713 01b6 8093 0000 		sts queue,r24
 714               	.LSM118:
 715 01ba 8983      		std Y+1,r24
 716 01bc 0E94 0000 		call send
 717               	.LVL50:
 718               	.LSM119:
 719 01c0 9091 0000 		lds r25,last_key
 720 01c4 8981      		ldd r24,Y+1
 721 01c6 9817      		cp r25,r24
 722 01c8 01F4      		brne .L61
 723 01ca 00C0      		rjmp .L67
 724               	.LVL51:
 725               	.L56:
 726               	.LSM120:
 727 01cc 822F      		mov r24,r18
 728 01ce 8F77      		andi r24,lo8(127)
 729 01d0 892B      		or r24,r25
 730 01d2 8093 0000 		sts mod_keys,r24
 731               	.LVL52:
 732               	.L65:
 733               	.LSM121:
 734 01d6 0E94 0000 		call send
 735 01da 00C0      		rjmp .L38
 736               	.LVL53:
 737               	.L67:
 738               	.LSM122:
 739 01dc 81E0      		ldi r24,lo8(1)
 740 01de 90E0      		ldi r25,hi8(1)
 741 01e0 9093 0000 		sts press_time2+1,r25
 742 01e4 8093 0000 		sts press_time2,r24
 743 01e8 00C0      		rjmp .L63
 744               	.L61:
 745               	.LSM123:
 746 01ea 8093 0000 		sts last_key,r24
 747               	.LSM124:
 748 01ee 81E0      		ldi r24,lo8(1)
 749 01f0 90E0      		ldi r25,hi8(1)
 750 01f2 9093 0000 		sts press_time+1,r25
 751 01f6 8093 0000 		sts press_time,r24
 752               	.LSM125:
 753 01fa 1092 0000 		sts press_time2+1,__zero_reg__
 754 01fe 1092 0000 		sts press_time2,__zero_reg__
 755               	.LSM126:
 756 0202 1092 0000 		sts release_time+1,__zero_reg__
 757 0206 1092 0000 		sts release_time,__zero_reg__
 758               	.L63:
 759               	.LSM127:
 760 020a 1092 0000 		sts repeat_time+1,__zero_reg__
 761 020e 1092 0000 		sts repeat_time,__zero_reg__
 762               	.LVL54:
 763               	.L38:
 764               	/* epilogue start */
 765               	.LSM128:
 766 0212 0F90      		pop __tmp_reg__
 767 0214 CF91      		pop r28
 768 0216 DF91      		pop r29
 769 0218 0895      		ret
 770               	.LFE10:
 772               		.section	.text.poll,"ax",@progbits
 773               	.global	poll
 775               	poll:
 776               	.LFB9:
 777               	.LSM129:
 778 0000 8F92      		push r8
 779 0002 9F92      		push r9
 780 0004 AF92      		push r10
 781 0006 BF92      		push r11
 782 0008 CF92      		push r12
 783 000a DF92      		push r13
 784 000c EF92      		push r14
 785 000e FF92      		push r15
 786 0010 0F93      		push r16
 787 0012 1F93      		push r17
 788 0014 CF93      		push r28
 789 0016 DF93      		push r29
 790               	/* prologue: function */
 791               	/* frame size = 0 */
 792               	/* stack size = 12 */
 793               	.L__stack_usage = 12
 794               	.LVL55:
 795               	.LSM130:
 796 0018 00E0      		ldi r16,lo8(row_port)
 797 001a 10E0      		ldi r17,hi8(row_port)
 798 001c C0E0      		ldi r28,lo8(row_bit)
 799 001e D0E0      		ldi r29,hi8(row_bit)
 800               	.LSM131:
 801 0020 9924      		clr r9
 802               	.LVL56:
 803               	.L72:
 804               	.LSM132:
 805 0022 D801      		movw r26,r16
 806 0024 ED91      		ld r30,X+
 807 0026 FC91      		ld r31,X
 808               	.LSM133:
 809 0028 5E01      		movw r10,r28
 810               	.LSM134:
 811 002a 9881      		ld r25,Y
 812 002c 9095      		com r25
 813 002e 8081      		ld r24,Z
 814 0030 8923      		and r24,r25
 815 0032 8083      		st Z,r24
 816               	.LVL57:
 817               	.LBB26:
 818               	.LBB27:
 819               	.LSM135:
 820 0034 B5E0      		 ldi r27,lo8(5)
 821 0036 BA95      	    1:dec r27
 822 0038 01F4      	    brne 1b
 823 003a 0000      		nop
 824               	.LVL58:
 825 003c 60E0      		ldi r22,lo8(col_pin)
 826 003e E62E      		mov r14,r22
 827 0040 60E0      		ldi r22,hi8(col_pin)
 828 0042 F62E      		mov r15,r22
 829 0044 50E0      		ldi r21,lo8(col_bit)
 830 0046 C52E      		mov r12,r21
 831 0048 50E0      		ldi r21,hi8(col_bit)
 832 004a D52E      		mov r13,r21
 833               	.LBE27:
 834               	.LBE26:
 835               	.LSM136:
 836 004c 892C      		mov r8,r9
 837               	.LVL59:
 838               	.L71:
 839               	.LSM137:
 840 004e D701      		movw r26,r14
 841 0050 ED91      		ld r30,X+
 842 0052 FD91      		ld r31,X+
 843 0054 7D01      		movw r14,r26
 844 0056 D601      		movw r26,r12
 845 0058 8D91      		ld r24,X+
 846 005a 6D01      		movw r12,r26
 847 005c 9081      		ld r25,Z
 848 005e 8923      		and r24,r25
 849 0060 282D      		mov r18,r8
 850 0062 30E0      		ldi r19,lo8(0)
 851 0064 01F4      		brne .L69
 852               	.LSM138:
 853 0066 2050      		subi r18,lo8(-(pressed))
 854 0068 3040      		sbci r19,hi8(-(pressed))
 855 006a F901      		movw r30,r18
 856 006c 8081      		ld r24,Z
 857 006e 8823      		tst r24
 858 0070 01F4      		brne .L70
 859               	.LSM139:
 860 0072 882D      		mov r24,r8
 861 0074 0E94 0000 		call key_press
 862 0078 00C0      		rjmp .L70
 863               	.L69:
 864               	.LSM140:
 865 007a 2050      		subi r18,lo8(-(pressed))
 866 007c 3040      		sbci r19,hi8(-(pressed))
 867 007e D901      		movw r26,r18
 868 0080 8C91      		ld r24,X
 869 0082 8823      		tst r24
 870 0084 01F0      		breq .L70
 871               	.LSM141:
 872 0086 882D      		mov r24,r8
 873 0088 0E94 0000 		call key_release
 874               	.L70:
 875 008c B5E0      		ldi r27,lo8(5)
 876 008e 8B0E      		add r8,r27
 877               	.LVL60:
 878               	.LSM142:
 879 0090 E0E0      		ldi r30,lo8(col_pin+24)
 880 0092 EE16      		cp r14,r30
 881 0094 E0E0      		ldi r30,hi8(col_pin+24)
 882 0096 FE06      		cpc r15,r30
 883 0098 01F4      		brne .L71
 884               	.LSM143:
 885 009a D801      		movw r26,r16
 886 009c ED91      		ld r30,X+
 887 009e FD91      		ld r31,X+
 888 00a0 8D01      		movw r16,r26
 889 00a2 2196      		adiw r28,1
 890 00a4 8081      		ld r24,Z
 891 00a6 D501      		movw r26,r10
 892 00a8 9C91      		ld r25,X
 893 00aa 892B      		or r24,r25
 894 00ac 8083      		st Z,r24
 895               	.LSM144:
 896 00ae 9394      		inc r9
 897               	.LVL61:
 898 00b0 B92D      		mov r27,r9
 899 00b2 B530      		cpi r27,lo8(5)
 900 00b4 01F0      		breq .+2
 901 00b6 00C0      		rjmp .L72
 902               	.LVL62:
 903               	.LBB28:
 904               	.LBB29:
 905               	.LSM145:
 906 00b8 EFE1      		 ldi r30,lo8(19999)
 907 00ba FEE4      	    ldi r31,hi8(19999)
 908 00bc 3197      	    1:sbiw r30,1
 909 00be 01F4      	    brne 1b
 910 00c0 00C0      		rjmp .
 911 00c2 0000      		nop
 912               	.LBE29:
 913               	.LBE28:
 914               	.LSM146:
 915 00c4 8091 0000 		lds r24,repeat_time
 916 00c8 9091 0000 		lds r25,repeat_time+1
 917 00cc 0097      		sbiw r24,0
 918 00ce 01F0      		breq .L73
 919               	.LSM147:
 920 00d0 2091 0000 		lds r18,release_time
 921 00d4 3091 0000 		lds r19,release_time+1
 922 00d8 3695      		lsr r19
 923 00da 2795      		ror r18
 924 00dc 3695      		lsr r19
 925 00de 2795      		ror r18
 926 00e0 8217      		cp r24,r18
 927 00e2 9307      		cpc r25,r19
 928 00e4 00F4      		brsh .L74
 929               	.LSM148:
 930 00e6 0196      		adiw r24,1
 931 00e8 00C0      		rjmp .L85
 932               	.L74:
 933               	.LSM149:
 934 00ea 81E0      		ldi r24,lo8(1)
 935 00ec 90E0      		ldi r25,hi8(1)
 936 00ee 9093 0000 		sts repeat_time+1,r25
 937 00f2 8093 0000 		sts repeat_time,r24
 938               	.LSM150:
 939 00f6 8091 0000 		lds r24,mod_keys
 940 00fa 8093 0000 		sts keyboard_modifier_keys,r24
 941               	.LSM151:
 942 00fe 8091 0000 		lds r24,last_key
 943 0102 0E94 0000 		call get_code
 944 0106 8093 0000 		sts keyboard_keys,r24
 945               	.LSM152:
 946 010a 0E94 0000 		call usb_keyboard_send
 947 010e 8823      		tst r24
 948 0110 01F0      		breq .+2
 949 0112 00C0      		rjmp .L68
 950               	.LSM153:
 951 0114 1092 0000 		sts keyboard_keys,__zero_reg__
 952               	.LSM154:
 953 0118 0E94 0000 		call usb_keyboard_send
 954 011c 00C0      		rjmp .L68
 955               	.L73:
 956               	.LSM155:
 957 011e 8091 0000 		lds r24,press_time2
 958 0122 9091 0000 		lds r25,press_time2+1
 959 0126 0097      		sbiw r24,0
 960 0128 01F0      		breq .L76
 961               	.LSM156:
 962 012a 4091 0000 		lds r20,press_time
 963 012e 5091 0000 		lds r21,press_time+1
 964 0132 2091 0000 		lds r18,pressed+35
 965 0136 2223      		tst r18
 966 0138 01F0      		breq .L82
 967 013a 25E0      		ldi r18,lo8(5)
 968 013c 30E0      		ldi r19,hi8(5)
 969 013e 00C0      		rjmp .L77
 970               	.L82:
 971 0140 2EE1      		ldi r18,lo8(30)
 972 0142 30E0      		ldi r19,hi8(30)
 973               	.L77:
 974               	.LSM157:
 975 0144 240F      		add r18,r20
 976 0146 351F      		adc r19,r21
 977 0148 8217      		cp r24,r18
 978 014a 9307      		cpc r25,r19
 979 014c 00F4      		brsh .L78
 980               	.LSM158:
 981 014e 0196      		adiw r24,1
 982 0150 9093 0000 		sts press_time2+1,r25
 983 0154 8093 0000 		sts press_time2,r24
 984 0158 00C0      		rjmp .L68
 985               	.L78:
 986               	.LSM159:
 987 015a 81E0      		ldi r24,lo8(1)
 988 015c 90E0      		ldi r25,hi8(1)
 989               	.L85:
 990 015e 9093 0000 		sts repeat_time+1,r25
 991 0162 8093 0000 		sts repeat_time,r24
 992 0166 00C0      		rjmp .L68
 993               	.L76:
 994               	.LSM160:
 995 0168 2091 0000 		lds r18,release_time
 996 016c 3091 0000 		lds r19,release_time+1
 997 0170 8091 0000 		lds r24,press_time
 998 0174 9091 0000 		lds r25,press_time+1
 999 0178 2115      		cp r18,__zero_reg__
 1000 017a 3105      		cpc r19,__zero_reg__
 1001 017c 01F0      		breq .L79
 1002               	.LSM161:
 1003 017e C296      		adiw r24,50
 1004 0180 2817      		cp r18,r24
 1005 0182 3907      		cpc r19,r25
 1006 0184 00F4      		brsh .L80
 1007               	.LSM162:
 1008 0186 2F5F      		subi r18,lo8(-(1))
 1009 0188 3F4F      		sbci r19,hi8(-(1))
 1010 018a 3093 0000 		sts release_time+1,r19
 1011 018e 2093 0000 		sts release_time,r18
 1012 0192 00C0      		rjmp .L68
 1013               	.L80:
 1014               	.LSM163:
 1015 0194 1092 0000 		sts last_key,__zero_reg__
 1016               	.LSM164:
 1017 0198 1092 0000 		sts release_time+1,__zero_reg__
 1018 019c 1092 0000 		sts release_time,__zero_reg__
 1019               	.LSM165:
 1020 01a0 1092 0000 		sts press_time+1,__zero_reg__
 1021 01a4 1092 0000 		sts press_time,__zero_reg__
 1022               	.LSM166:
 1023 01a8 1092 0000 		sts press_time2+1,__zero_reg__
 1024 01ac 1092 0000 		sts press_time2,__zero_reg__
 1025 01b0 00C0      		rjmp .L68
 1026               	.L79:
 1027               	.LSM167:
 1028 01b2 0097      		sbiw r24,0
 1029 01b4 01F0      		breq .L68
 1030               	.LSM168:
 1031 01b6 8233      		cpi r24,50
 1032 01b8 9105      		cpc r25,__zero_reg__
 1033 01ba 00F4      		brsh .L81
 1034               	.LSM169:
 1035 01bc 0196      		adiw r24,1
 1036 01be 9093 0000 		sts press_time+1,r25
 1037 01c2 8093 0000 		sts press_time,r24
 1038 01c6 00C0      		rjmp .L68
 1039               	.L81:
 1040               	.LSM170:
 1041 01c8 1092 0000 		sts press_time+1,__zero_reg__
 1042 01cc 1092 0000 		sts press_time,__zero_reg__
 1043               	.L68:
 1044               	/* epilogue start */
 1045               	.LSM171:
 1046 01d0 DF91      		pop r29
 1047 01d2 CF91      		pop r28
 1048 01d4 1F91      		pop r17
 1049 01d6 0F91      		pop r16
 1050 01d8 FF90      		pop r15
 1051 01da EF90      		pop r14
 1052 01dc DF90      		pop r13
 1053 01de CF90      		pop r12
 1054 01e0 BF90      		pop r11
 1055 01e2 AF90      		pop r10
 1056 01e4 9F90      		pop r9
 1057               	.LVL63:
 1058 01e6 8F90      		pop r8
 1059               	.LVL64:
 1060 01e8 0895      		ret
 1061               	.LFE9:
 1063               		.section	.text.main,"ax",@progbits
 1064               	.global	main
 1066               	main:
 1067               	.LFB7:
 1068               	.LSM172:
 1069               	/* prologue: function */
 1070               	/* frame size = 0 */
 1071               	/* stack size = 0 */
 1072               	.L__stack_usage = 0
 1073               	.LSM173:
 1074 0000 84B7      		in r24,84-32
 1075 0002 877F      		andi r24,lo8(-9)
 1076 0004 84BF      		out 84-32,r24
 1077               	.LSM174:
 1078 0006 88E1      		ldi r24,lo8(24)
 1079               	/* #APP */
 1080               	 ;  139 "catboard.c" 1
 1081 0008 0FB6      		in __tmp_reg__, __SREG__
 1082 000a F894      		cli
 1083 000c 8093 6000 		sts 96, r24
 1084 0010 1092 6000 		sts 96, __zero_reg__
 1085 0014 0FBE      		out __SREG__,__tmp_reg__
 1086               		
 1087               	 ;  0 "" 2
 1088               	.LVL65:
 1089               	/* #NOAPP */
 1090               	.LBB30:
 1091               	.LBB31:
 1092               	.LSM175:
 1093 0016 90E0      		ldi r25,lo8(0)
 1094 0018 80E8      		ldi r24,lo8(-128)
 1095               	/* #APP */
 1096               	 ;  1492 "/usr/lib/gcc/avr/4.5.3/../../../avr/include/avr/power.h" 1
 1097 001a 0FB6      		in __tmp_reg__,__SREG__
 1098 001c F894      		cli
 1099 001e 8093 6100 		sts 97, r24
 1100 0022 9093 6100 		sts 97, r25
 1101 0026 0FBE      		out __SREG__, __tmp_reg__
 1102               	 ;  0 "" 2
 1103               	/* #NOAPP */
 1104               	.LBE31:
 1105               	.LBE30:
 1106               	.LSM176:
 1107 0028 0E94 0000 		call init
 1108               	.L87:
 1109               	.LSM177:
 1110 002c 0E94 0000 		call poll
 1111 0030 00C0      		rjmp .L87
 1112               	.LFE7:
 1114               	.global	layer1
 1115               		.data
 1118               	layer1:
 1119 0000 29        		.byte	41
 1120 0001 F1        		.byte	-15
 1121 0002 2A        		.byte	42
 1122 0003 2B        		.byte	43
 1123 0004 35        		.byte	53
 1124 0005 FD        		.byte	-3
 1125 0006 1D        		.byte	29
 1126 0007 04        		.byte	4
 1127 0008 14        		.byte	20
 1128 0009 1E        		.byte	30
 1129 000a 28        		.byte	40
 1130 000b 1B        		.byte	27
 1131 000c 16        		.byte	22
 1132 000d 1A        		.byte	26
 1133 000e 1F        		.byte	31
 1134 000f 84        		.byte	-124
 1135 0010 06        		.byte	6
 1136 0011 07        		.byte	7
 1137 0012 08        		.byte	8
 1138 0013 20        		.byte	32
 1139 0014 81        		.byte	-127
 1140 0015 19        		.byte	25
 1141 0016 09        		.byte	9
 1142 0017 15        		.byte	21
 1143 0018 21        		.byte	33
 1144 0019 82        		.byte	-126
 1145 001a 05        		.byte	5
 1146 001b 0A        		.byte	10
 1147 001c 17        		.byte	23
 1148 001d 22        		.byte	34
 1149 001e 2C        		.byte	44
 1150 001f 11        		.byte	17
 1151 0020 0B        		.byte	11
 1152 0021 1C        		.byte	28
 1153 0022 23        		.byte	35
 1154 0023 FF        		.byte	-1
 1155 0024 10        		.byte	16
 1156 0025 0D        		.byte	13
 1157 0026 18        		.byte	24
 1158 0027 24        		.byte	36
 1159 0028 C0        		.byte	-64
 1160 0029 36        		.byte	54
 1161 002a 0E        		.byte	14
 1162 002b 0C        		.byte	12
 1163 002c 25        		.byte	37
 1164 002d 31        		.byte	49
 1165 002e 37        		.byte	55
 1166 002f 0F        		.byte	15
 1167 0030 12        		.byte	18
 1168 0031 26        		.byte	38
 1169 0032 30        		.byte	48
 1170 0033 38        		.byte	56
 1171 0034 33        		.byte	51
 1172 0035 13        		.byte	19
 1173 0036 27        		.byte	39
 1174 0037 2E        		.byte	46
 1175 0038 F2        		.byte	-14
 1176 0039 34        		.byte	52
 1177 003a 2F        		.byte	47
 1178 003b 2D        		.byte	45
 1179               	.global	layer2
 1182               	layer2:
 1183 003c 29        		.byte	41
 1184 003d F1        		.byte	-15
 1185 003e 2A        		.byte	42
 1186 003f 2B        		.byte	43
 1187 0040 35        		.byte	53
 1188 0041 FD        		.byte	-3
 1189 0042 14        		.byte	20
 1190 0043 09        		.byte	9
 1191 0044 0D        		.byte	13
 1192 0045 1E        		.byte	30
 1193 0046 28        		.byte	40
 1194 0047 38        		.byte	56
 1195 0048 1C        		.byte	28
 1196 0049 06        		.byte	6
 1197 004a 1F        		.byte	31
 1198 004b 84        		.byte	-124
 1199 004c 16        		.byte	22
 1200 004d 19        		.byte	25
 1201 004e 18        		.byte	24
 1202 004f 20        		.byte	32
 1203 0050 81        		.byte	-127
 1204 0051 10        		.byte	16
 1205 0052 04        		.byte	4
 1206 0053 0E        		.byte	14
 1207 0054 21        		.byte	33
 1208 0055 82        		.byte	-126
 1209 0056 0C        		.byte	12
 1210 0057 13        		.byte	19
 1211 0058 08        		.byte	8
 1212 0059 22        		.byte	34
 1213 005a 2C        		.byte	44
 1214 005b 17        		.byte	23
 1215 005c 15        		.byte	21
 1216 005d 11        		.byte	17
 1217 005e 23        		.byte	35
 1218 005f FF        		.byte	-1
 1219 0060 1B        		.byte	27
 1220 0061 12        		.byte	18
 1221 0062 0A        		.byte	10
 1222 0063 24        		.byte	36
 1223 0064 C0        		.byte	-64
 1224 0065 05        		.byte	5
 1225 0066 0F        		.byte	15
 1226 0067 0B        		.byte	11
 1227 0068 25        		.byte	37
 1228 0069 31        		.byte	49
 1229 006a 36        		.byte	54
 1230 006b 07        		.byte	7
 1231 006c 1A        		.byte	26
 1232 006d 26        		.byte	38
 1233 006e 30        		.byte	48
 1234 006f 37        		.byte	55
 1235 0070 33        		.byte	51
 1236 0071 1D        		.byte	29
 1237 0072 27        		.byte	39
 1238 0073 2E        		.byte	46
 1239 0074 F2        		.byte	-14
 1240 0075 34        		.byte	52
 1241 0076 2F        		.byte	47
 1242 0077 2D        		.byte	45
 1243               	.global	layer_fn
 1246               	layer_fn:
 1247 0078 29        		.byte	41
 1248 0079 00        		.byte	0
 1249 007a 2A        		.byte	42
 1250 007b 2B        		.byte	43
 1251 007c 46        		.byte	70
 1252 007d 53        		.byte	83
 1253 007e 62        		.byte	98
 1254 007f 55        		.byte	85
 1255 0080 54        		.byte	84
 1256 0081 3A        		.byte	58
 1257 0082 28        		.byte	40
 1258 0083 59        		.byte	89
 1259 0084 5C        		.byte	92
 1260 0085 5F        		.byte	95
 1261 0086 3B        		.byte	59
 1262 0087 84        		.byte	-124
 1263 0088 5A        		.byte	90
 1264 0089 5D        		.byte	93
 1265 008a 60        		.byte	96
 1266 008b 3C        		.byte	60
 1267 008c 81        		.byte	-127
 1268 008d 5B        		.byte	91
 1269 008e 5E        		.byte	94
 1270 008f 61        		.byte	97
 1271 0090 3D        		.byte	61
 1272 0091 82        		.byte	-126
 1273 0092 63        		.byte	99
 1274 0093 57        		.byte	87
 1275 0094 56        		.byte	86
 1276 0095 3E        		.byte	62
 1277 0096 2C        		.byte	44
 1278 0097 2A        		.byte	42
 1279 0098 28        		.byte	40
 1280 0099 FD        		.byte	-3
 1281 009a 3F        		.byte	63
 1282 009b FF        		.byte	-1
 1283 009c 4C        		.byte	76
 1284 009d 50        		.byte	80
 1285 009e 4A        		.byte	74
 1286 009f 40        		.byte	64
 1287 00a0 FE        		.byte	-2
 1288 00a1 49        		.byte	73
 1289 00a2 51        		.byte	81
 1290 00a3 52        		.byte	82
 1291 00a4 41        		.byte	65
 1292 00a5 00        		.byte	0
 1293 00a6 00        		.byte	0
 1294 00a7 4F        		.byte	79
 1295 00a8 4D        		.byte	77
 1296 00a9 42        		.byte	66
 1297 00aa 00        		.byte	0
 1298 00ab 00        		.byte	0
 1299 00ac 4E        		.byte	78
 1300 00ad 4B        		.byte	75
 1301 00ae 43        		.byte	67
 1302 00af 45        		.byte	69
 1303 00b0 00        		.byte	0
 1304 00b1 00        		.byte	0
 1305 00b2 29        		.byte	41
 1306 00b3 44        		.byte	68
 1307               	.global	layout
 1310               	layout:
 1311 00b4 0000      		.word	layer2
 1312               	.global	row_port
 1315               	row_port:
 1316 00b6 2800      		.word	40
 1317 00b8 2800      		.word	40
 1318 00ba 2800      		.word	40
 1319 00bc 2800      		.word	40
 1320 00be 2800      		.word	40
 1321               	.global	row_bit
 1324               	row_bit:
 1325 00c0 80        		.byte	-128
 1326 00c1 40        		.byte	64
 1327 00c2 20        		.byte	32
 1328 00c3 10        		.byte	16
 1329 00c4 04        		.byte	4
 1330               	.global	col_pin
 1333               	col_pin:
 1334 00c5 2900      		.word	41
 1335 00c7 2900      		.word	41
 1336 00c9 2900      		.word	41
 1337 00cb 2900      		.word	41
 1338 00cd 2900      		.word	41
 1339 00cf 2900      		.word	41
 1340 00d1 2300      		.word	35
 1341 00d3 2300      		.word	35
 1342 00d5 2300      		.word	35
 1343 00d7 2300      		.word	35
 1344 00d9 2300      		.word	35
 1345 00db 2300      		.word	35
 1346               	.global	col_bit
 1349               	col_bit:
 1350 00dd 40        		.byte	64
 1351 00de 20        		.byte	32
 1352 00df 08        		.byte	8
 1353 00e0 04        		.byte	4
 1354 00e1 02        		.byte	2
 1355 00e2 01        		.byte	1
 1356 00e3 80        		.byte	-128
 1357 00e4 40        		.byte	64
 1358 00e5 20        		.byte	32
 1359 00e6 10        		.byte	16
 1360 00e7 02        		.byte	2
 1361 00e8 01        		.byte	1
 1362               	.global	queue
 1365               	queue:
 1366 00e9 FF        		.byte	-1
 1367 00ea FF        		.byte	-1
 1368 00eb FF        		.byte	-1
 1369 00ec FF        		.byte	-1
 1370 00ed FF        		.byte	-1
 1371 00ee FF        		.byte	-1
 1372 00ef FF        		.byte	-1
 1373               	.global	mod_keys
 1374               	.global	mod_keys
 1375               		.section .bss
 1378               	mod_keys:
 1379 0000 00        		.skip 1,0
 1380               	.global	prev_layer
 1381               	.global	prev_layer
 1384               	prev_layer:
 1385 0001 0000      		.skip 2,0
 1386               	.global	last_key
 1387               	.global	last_key
 1390               	last_key:
 1391 0003 00        		.skip 1,0
 1392               	.global	press_time
 1393               	.global	press_time
 1396               	press_time:
 1397 0004 0000      		.skip 2,0
 1398               	.global	press_time2
 1399               	.global	press_time2
 1402               	press_time2:
 1403 0006 0000      		.skip 2,0
 1404               	.global	release_time
 1405               	.global	release_time
 1408               	release_time:
 1409 0008 0000      		.skip 2,0
 1410               	.global	repeat_time
 1411               	.global	repeat_time
 1414               	repeat_time:
 1415 000a 0000      		.skip 2,0
 1416               		.comm pressed,60,1
 1497               	.Letext0:
DEFINED SYMBOLS
                            *ABS*:00000000 catboard.c
     /tmp/cckD8yNg.s:2      *ABS*:0000003f __SREG__
     /tmp/cckD8yNg.s:3      *ABS*:0000003e __SP_H__
     /tmp/cckD8yNg.s:4      *ABS*:0000003d __SP_L__
     /tmp/cckD8yNg.s:5      *ABS*:00000034 __CCP__
     /tmp/cckD8yNg.s:6      *ABS*:00000000 __tmp_reg__
     /tmp/cckD8yNg.s:7      *ABS*:00000001 __zero_reg__
     /tmp/cckD8yNg.s:19     .text.change_layout:00000000 change_layout
     /tmp/cckD8yNg.s:60     .text.init:00000000 init
                            *COM*:0000003c pressed
     /tmp/cckD8yNg.s:135    .text.get_code:00000000 get_code
     /tmp/cckD8yNg.s:1246   .data:00000078 layer_fn
     /tmp/cckD8yNg.s:1310   .data:000000b4 layout
     /tmp/cckD8yNg.s:1118   .data:00000000 layer1
     /tmp/cckD8yNg.s:208    .text.send:00000000 send
     /tmp/cckD8yNg.s:1365   .data:000000e9 queue
     /tmp/cckD8yNg.s:1378   .bss:00000000 mod_keys
     /tmp/cckD8yNg.s:255    .text.key_release:00000000 key_release
     /tmp/cckD8yNg.s:1390   .bss:00000003 last_key
     /tmp/cckD8yNg.s:1402   .bss:00000006 press_time2
     /tmp/cckD8yNg.s:1408   .bss:00000008 release_time
     /tmp/cckD8yNg.s:1396   .bss:00000004 press_time
     /tmp/cckD8yNg.s:1414   .bss:0000000a repeat_time
     /tmp/cckD8yNg.s:439    .text.key_press:00000000 key_press
     /tmp/cckD8yNg.s:1384   .bss:00000001 prev_layer
     /tmp/cckD8yNg.s:1182   .data:0000003c layer2
     /tmp/cckD8yNg.s:775    .text.poll:00000000 poll
     /tmp/cckD8yNg.s:1315   .data:000000b6 row_port
     /tmp/cckD8yNg.s:1324   .data:000000c0 row_bit
     /tmp/cckD8yNg.s:1333   .data:000000c5 col_pin
     /tmp/cckD8yNg.s:1349   .data:000000dd col_bit
     /tmp/cckD8yNg.s:1066   .text.main:00000000 main

UNDEFINED SYMBOLS
keyboard_modifier_keys
keyboard_keys
usb_keyboard_send
usb_keyboard_press
usb_init
usb_configured
__do_copy_data
__do_clear_bss
