   1               		.file	"catboard.c"
   2               	__SREG__ = 0x3f
   3               	__SP_H__ = 0x3e
   4               	__SP_L__ = 0x3d
   5               	__CCP__ = 0x34
   6               	__tmp_reg__ = 0
   7               	__zero_reg__ = 1
  15               	.Ltext0:
  16               		.section	.text.change_layout,"ax",@progbits
  17               	.global	change_layout
  19               	change_layout:
  20               	.LFB13:
  21               	.LSM0:
  22               	/* prologue: function */
  23               	/* frame size = 0 */
  24               	/* stack size = 0 */
  25               	.L__stack_usage = 0
  26               	.LSM1:
  27 0000 8091 0000 		lds r24,mac_mode
  28 0004 8823      		tst r24
  29 0006 01F0      		breq .L2
  30               	.LSM2:
  31 0008 88E0      		ldi r24,lo8(8)
  32 000a 8093 0000 		sts keyboard_modifier_keys,r24
  33               	.LSM3:
  34 000e 1092 0000 		sts keyboard_keys,__zero_reg__
  35               	.LSM4:
  36 0012 0E94 0000 		call usb_keyboard_send
  37               	.LVL0:
  38               	.LBB17:
  39               	.LBB18:
  40               	.LSM5:
  41 0016 8FEF      		 ldi r24,lo8(159999)
  42 0018 90E7      	    ldi r25,hi8(159999)
  43 001a A2E0      	    ldi r26,hlo8(159999)
  44 001c 8150      	    1:subi r24,1
  45 001e 9040      	    sbci r25,0
  46 0020 A040      	    sbci r26,0
  47 0022 01F4      	    brne 1b
  48 0024 00C0      		rjmp .
  49 0026 0000      		nop
  50               	.LBE18:
  51               	.LBE17:
  52               	.LSM6:
  53 0028 8CE2      		ldi r24,lo8(44)
  54 002a 68E0      		ldi r22,lo8(8)
  55 002c 00C0      		rjmp .L4
  56               	.LVL1:
  57               	.L2:
  58               	.LSM7:
  59 002e 84E0      		ldi r24,lo8(4)
  60 0030 8093 0000 		sts keyboard_modifier_keys,r24
  61               	.LSM8:
  62 0034 1092 0000 		sts keyboard_keys,__zero_reg__
  63               	.LSM9:
  64 0038 0E94 0000 		call usb_keyboard_send
  65               	.LVL2:
  66               	.LBB19:
  67               	.LBB20:
  68               	.LSM10:
  69 003c 8FEF      		 ldi r24,lo8(159999)
  70 003e 90E7      	    ldi r25,hi8(159999)
  71 0040 A2E0      	    ldi r26,hlo8(159999)
  72 0042 8150      	    1:subi r24,1
  73 0044 9040      	    sbci r25,0
  74 0046 A040      	    sbci r26,0
  75 0048 01F4      	    brne 1b
  76 004a 00C0      		rjmp .
  77 004c 0000      		nop
  78               	.LBE20:
  79               	.LBE19:
  80               	.LSM11:
  81 004e 80E0      		ldi r24,lo8(0)
  82 0050 66E0      		ldi r22,lo8(6)
  83               	.LVL3:
  84               	.L4:
  85 0052 0E94 0000 		call usb_keyboard_press
  86 0056 0895      		ret
  87               	.LFE13:
  89               		.section	.text.init,"ax",@progbits
  90               	.global	init
  92               	init:
  93               	.LFB8:
  94               	.LSM12:
  95               	/* prologue: function */
  96               	/* frame size = 0 */
  97               	/* stack size = 0 */
  98               	.L__stack_usage = 0
  99               	.LSM13:
 100 0000 80E8      		ldi r24,lo8(-128)
 101 0002 8093 6100 		sts 97,r24
 102 0006 1092 6100 		sts 97,__zero_reg__
 103               	.LSM14:
 104 000a 14B8      		out 36-32,__zero_reg__
 105 000c 94EF      		ldi r25,lo8(-12)
 106 000e 97B9      		out 39-32,r25
 107 0010 1AB8      		out 42-32,__zero_reg__
 108               	.LSM15:
 109 0012 8FEF      		ldi r24,lo8(-1)
 110 0014 85B9      		out 37-32,r24
 111 0016 98B9      		out 40-32,r25
 112 0018 8BB9      		out 43-32,r24
 113               	.LSM16:
 114 001a 549A      		sbi 42-32,4
 115               	.LSM17:
 116 001c 5C9A      		sbi 43-32,4
 117               	.LVL4:
 118 001e E0E0      		ldi r30,lo8(pressed)
 119 0020 F0E0      		ldi r31,hi8(pressed)
 120               	.LVL5:
 121               	.L6:
 122               	.LBB21:
 123               	.LSM18:
 124 0022 1192      		st Z+,__zero_reg__
 125               	.LSM19:
 126 0024 80E0      		ldi r24,hi8(pressed+60)
 127 0026 E030      		cpi r30,lo8(pressed+60)
 128 0028 F807      		cpc r31,r24
 129 002a 01F4      		brne .L6
 130               	.LBE21:
 131               	.LSM20:
 132 002c 0E94 0000 		call usb_init
 133               	.LSM21:
 134 0030 5C98      		cbi 43-32,4
 135               	.L7:
 136               	.LSM22:
 137 0032 0E94 0000 		call usb_configured
 138 0036 8823      		tst r24
 139 0038 01F0      		breq .L7
 140               	.LSM23:
 141 003a 5C9A      		sbi 43-32,4
 142               	.LVL6:
 143               	.LBB22:
 144               	.LBB23:
 145               	.LSM24:
 146 003c 8FEF      		 ldi r24,lo8(3199999)
 147 003e 93ED      	    ldi r25,hi8(3199999)
 148 0040 A0E3      	    ldi r26,hlo8(3199999)
 149 0042 8150      	    1:subi r24,1
 150 0044 9040      	    sbci r25,0
 151 0046 A040      	    sbci r26,0
 152 0048 01F4      	    brne 1b
 153 004a 00C0      		rjmp .
 154 004c 0000      		nop
 155               	.LBE23:
 156               	.LBE22:
 157               	.LSM25:
 158 004e 5C98      		cbi 43-32,4
 159               	/* epilogue start */
 160               	.LSM26:
 161 0050 0895      		ret
 162               	.LFE8:
 164               		.section	.text.get_code,"ax",@progbits
 165               	.global	get_code
 167               	get_code:
 168               	.LFB15:
 169               	.LSM27:
 170               	.LVL7:
 171               	/* prologue: function */
 172               	/* frame size = 0 */
 173               	/* stack size = 0 */
 174               	.L__stack_usage = 0
 175               	.LSM28:
 176 0000 8C33      		cpi r24,lo8(60)
 177 0002 00F4      		brsh .L14
 178               	.LSM29:
 179 0004 282F      		mov r18,r24
 180 0006 30E0      		ldi r19,lo8(0)
 181 0008 F901      		movw r30,r18
 182 000a E050      		subi r30,lo8(-(pressed))
 183 000c F040      		sbci r31,hi8(-(pressed))
 184 000e 9081      		ld r25,Z
 185 0010 9130      		cpi r25,lo8(1)
 186 0012 01F4      		brne .L12
 187               	.LVL8:
 188               	.LSM30:
 189 0014 2050      		subi r18,lo8(-(layer_fn))
 190 0016 3040      		sbci r19,hi8(-(layer_fn))
 191               	.LVL9:
 192 0018 F901      		movw r30,r18
 193 001a 8081      		ld r24,Z
 194               	.LVL10:
 195 001c 1816      		cp __zero_reg__,r24
 196 001e 04F0      		brlt .L11
 197               	.LSM31:
 198 0020 80E0      		ldi r24,lo8(0)
 199 0022 0895      		ret
 200               	.LVL11:
 201               	.L12:
 202               	.LSM32:
 203 0024 4091 0000 		lds r20,layout
 204 0028 5091 0000 		lds r21,layout+1
 205 002c F0E0      		ldi r31,hi8(layer_fn)
 206 002e 4030      		cpi r20,lo8(layer_fn)
 207 0030 5F07      		cpc r21,r31
 208 0032 01F0      		breq .L13
 209               	.LSM33:
 210 0034 9230      		cpi r25,lo8(2)
 211 0036 01F4      		brne .L13
 212               	.LSM34:
 213 0038 2050      		subi r18,lo8(-(layer1))
 214 003a 3040      		sbci r19,hi8(-(layer1))
 215               	.LVL12:
 216 003c F901      		movw r30,r18
 217 003e 00C0      		rjmp .L15
 218               	.L13:
 219               	.LSM35:
 220 0040 480F      		add r20,r24
 221 0042 511D      		adc r21,__zero_reg__
 222 0044 FA01      		movw r30,r20
 223               	.L15:
 224 0046 8081      		ld r24,Z
 225               	.LVL13:
 226 0048 0895      		ret
 227               	.LVL14:
 228               	.L14:
 229               	.LSM36:
 230 004a 80E0      		ldi r24,lo8(0)
 231               	.LVL15:
 232               	.L11:
 233               	.LSM37:
 234 004c 0895      		ret
 235               	.LFE15:
 237               		.section	.text.send,"ax",@progbits
 238               	.global	send
 240               	send:
 241               	.LFB14:
 242               	.LSM38:
 243 0000 0F93      		push r16
 244 0002 1F93      		push r17
 245 0004 CF93      		push r28
 246 0006 DF93      		push r29
 247               	/* prologue: function */
 248               	/* frame size = 0 */
 249               	/* stack size = 4 */
 250               	.L__stack_usage = 4
 251               	.LVL16:
 252               	.LSM39:
 253 0008 C0E0      		ldi r28,lo8(queue)
 254 000a D0E0      		ldi r29,hi8(queue)
 255 000c 00E0      		ldi r16,lo8(keyboard_keys)
 256 000e 10E0      		ldi r17,hi8(keyboard_keys)
 257               	.LVL17:
 258               	.L17:
 259               	.LSM40:
 260 0010 8991      		ld r24,Y+
 261 0012 0E94 0000 		call get_code
 262 0016 F801      		movw r30,r16
 263 0018 8193      		st Z+,r24
 264 001a 8F01      		movw r16,r30
 265               	.LSM41:
 266 001c F0E0      		ldi r31,hi8(queue+6)
 267 001e C030      		cpi r28,lo8(queue+6)
 268 0020 DF07      		cpc r29,r31
 269 0022 01F4      		brne .L17
 270               	.LSM42:
 271 0024 8091 0000 		lds r24,mod_keys
 272 0028 8093 0000 		sts keyboard_modifier_keys,r24
 273               	.LSM43:
 274 002c 0E94 0000 		call usb_keyboard_send
 275               	/* epilogue start */
 276               	.LSM44:
 277 0030 DF91      		pop r29
 278 0032 CF91      		pop r28
 279 0034 1F91      		pop r17
 280 0036 0F91      		pop r16
 281 0038 0895      		ret
 282               	.LFE14:
 284               		.section	.text.key_release,"ax",@progbits
 285               	.global	key_release
 287               	key_release:
 288               	.LFB12:
 289               	.LSM45:
 290               	.LVL18:
 291 0000 0F93      		push r16
 292 0002 1F93      		push r17
 293               	/* prologue: function */
 294               	/* frame size = 0 */
 295               	/* stack size = 2 */
 296               	.L__stack_usage = 2
 297 0004 082F      		mov r16,r24
 298               	.LSM46:
 299 0006 282F      		mov r18,r24
 300 0008 30E0      		ldi r19,lo8(0)
 301 000a F901      		movw r30,r18
 302 000c E050      		subi r30,lo8(-(pressed))
 303 000e F040      		sbci r31,hi8(-(pressed))
 304 0010 1081      		ld r17,Z
 305               	.LVL19:
 306               	.LSM47:
 307 0012 1130      		cpi r17,lo8(1)
 308 0014 01F4      		brne .L20
 309               	.LVL20:
 310               	.LSM48:
 311 0016 F901      		movw r30,r18
 312               	.LVL21:
 313 0018 E050      		subi r30,lo8(-(layer_fn))
 314 001a F040      		sbci r31,hi8(-(layer_fn))
 315 001c 00C0      		rjmp .L46
 316               	.L20:
 317               	.LSM49:
 318 001e E091 0000 		lds r30,layout
 319 0022 F091 0000 		lds r31,layout+1
 320 0026 E20F      		add r30,r18
 321 0028 F31F      		adc r31,r19
 322 002a 8081      		ld r24,Z
 323               	.LVL22:
 324               	.LSM50:
 325 002c 1630      		cpi r17,lo8(6)
 326 002e 01F4      		brne .L21
 327               	.LSM51:
 328 0030 4091 0000 		lds r20,prev_layer
 329 0034 5091 0000 		lds r21,prev_layer+1
 330 0038 4115      		cp r20,__zero_reg__
 331 003a 5105      		cpc r21,__zero_reg__
 332 003c 01F0      		breq .L21
 333               	.LSM52:
 334 003e 420F      		add r20,r18
 335 0040 531F      		adc r21,r19
 336 0042 FA01      		movw r30,r20
 337               	.LVL23:
 338               	.L46:
 339 0044 8081      		ld r24,Z
 340               	.LVL24:
 341               	.L21:
 342               	.LSM53:
 343 0046 2050      		subi r18,lo8(-(pressed))
 344 0048 3040      		sbci r19,hi8(-(pressed))
 345 004a F901      		movw r30,r18
 346 004c 1082      		st Z,__zero_reg__
 347               	.LSM54:
 348 004e 813F      		cpi r24,lo8(-15)
 349 0050 00F4      		brsh .+2
 350 0052 00C0      		rjmp .L22
 351               	.LSM55:
 352 0054 8D3F      		cpi r24,lo8(-3)
 353 0056 01F4      		brne .L23
 354               	.LSM56:
 355 0058 1330      		cpi r17,lo8(3)
 356 005a 01F4      		brne .+2
 357 005c 00C0      		rjmp .L19
 358               	.LSM57:
 359 005e 8091 0000 		lds r24,mod_keys
 360               	.LVL25:
 361 0062 8B7F      		andi r24,lo8(-5)
 362 0064 00C0      		rjmp .L47
 363               	.LVL26:
 364               	.L23:
 365               	.LSM58:
 366 0066 813F      		cpi r24,lo8(-15)
 367 0068 01F4      		brne .L25
 368 006a 8091 0000 		lds r24,mod_keys
 369               	.LVL27:
 370               	.LSM59:
 371 006e 1530      		cpi r17,lo8(5)
 372 0070 01F4      		brne .L26
 373               	.LSM60:
 374 0072 8E7F      		andi r24,lo8(-2)
 375 0074 00C0      		rjmp .L47
 376               	.L26:
 377               	.LSM61:
 378 0076 8D7F      		andi r24,lo8(-3)
 379 0078 8093 0000 		sts mod_keys,r24
 380               	.LSM62:
 381 007c 0E94 0000 		call send
 382               	.LSM63:
 383 0080 8091 0000 		lds r24,last_key
 384 0084 8017      		cp r24,r16
 385 0086 01F0      		breq .+2
 386 0088 00C0      		rjmp .L19
 387               	.LSM64:
 388 008a 1430      		cpi r17,lo8(4)
 389 008c 01F4      		brne .+2
 390 008e 00C0      		rjmp .L19
 391               	.LSM65:
 392 0090 2091 0000 		lds r18,layout
 393 0094 3091 0000 		lds r19,layout+1
 394 0098 80E0      		ldi r24,lo8(layer1)
 395 009a 90E0      		ldi r25,hi8(layer1)
 396 009c 2817      		cp r18,r24
 397 009e 3907      		cpc r19,r25
 398 00a0 01F4      		brne .+2
 399 00a2 00C0      		rjmp .L19
 400               	.LBB24:
 401               	.LSM66:
 402 00a4 40E0      		ldi r20,hi8(layer_fn)
 403 00a6 2030      		cpi r18,lo8(layer_fn)
 404 00a8 3407      		cpc r19,r20
 405 00aa 01F4      		brne .L30
 406 00ac 00C0      		rjmp .L49
 407               	.LVL28:
 408               	.L25:
 409               	.LBE24:
 410               	.LSM67:
 411 00ae 823F      		cpi r24,lo8(-14)
 412 00b0 01F0      		breq .+2
 413 00b2 00C0      		rjmp .L19
 414 00b4 8091 0000 		lds r24,mod_keys
 415               	.LVL29:
 416               	.LSM68:
 417 00b8 1530      		cpi r17,lo8(5)
 418 00ba 01F4      		brne .L29
 419               	.LSM69:
 420 00bc 8F7E      		andi r24,lo8(-17)
 421 00be 00C0      		rjmp .L47
 422               	.L29:
 423               	.LSM70:
 424 00c0 8F7D      		andi r24,lo8(-33)
 425 00c2 8093 0000 		sts mod_keys,r24
 426               	.LSM71:
 427 00c6 0E94 0000 		call send
 428               	.LSM72:
 429 00ca 8091 0000 		lds r24,last_key
 430 00ce 8017      		cp r24,r16
 431 00d0 01F0      		breq .+2
 432 00d2 00C0      		rjmp .L19
 433               	.LSM73:
 434 00d4 1430      		cpi r17,lo8(4)
 435 00d6 01F4      		brne .+2
 436 00d8 00C0      		rjmp .L19
 437               	.LSM74:
 438 00da 2091 0000 		lds r18,layout
 439 00de 3091 0000 		lds r19,layout+1
 440 00e2 80E0      		ldi r24,lo8(layer2)
 441 00e4 90E0      		ldi r25,hi8(layer2)
 442 00e6 2817      		cp r18,r24
 443 00e8 3907      		cpc r19,r25
 444 00ea 01F4      		brne .+2
 445 00ec 00C0      		rjmp .L19
 446               	.LBB25:
 447               	.LSM75:
 448 00ee F0E0      		ldi r31,hi8(layer_fn)
 449 00f0 2030      		cpi r18,lo8(layer_fn)
 450 00f2 3F07      		cpc r19,r31
 451 00f4 01F4      		brne .L30
 452               	.L49:
 453               	.LSM76:
 454 00f6 9093 0000 		sts prev_layer+1,r25
 455 00fa 8093 0000 		sts prev_layer,r24
 456 00fe 00C0      		rjmp .L31
 457               	.L30:
 458               	.LSM77:
 459 0100 9093 0000 		sts layout+1,r25
 460 0104 8093 0000 		sts layout,r24
 461               	.L31:
 462               	.LSM78:
 463 0108 0E94 0000 		call change_layout
 464 010c 00C0      		rjmp .L19
 465               	.LVL30:
 466               	.L22:
 467               	.LBE25:
 468               	.LSM79:
 469 010e 87FF      		sbrs r24,7
 470 0110 00C0      		rjmp .L32
 471               	.LSM80:
 472 0112 9091 0000 		lds r25,mac_mode
 473 0116 9923      		tst r25
 474 0118 01F0      		breq .L33
 475               	.LSM81:
 476 011a 8138      		cpi r24,lo8(-127)
 477 011c 01F4      		brne .L34
 478               	.LSM82:
 479 011e 8091 0000 		lds r24,mod_keys
 480               	.LVL31:
 481 0122 877F      		andi r24,lo8(-9)
 482 0124 00C0      		rjmp .L47
 483               	.LVL32:
 484               	.L34:
 485               	.LSM83:
 486 0126 8039      		cpi r24,lo8(-112)
 487 0128 01F0      		breq .L36
 488               	.L33:
 489               	.LSM84:
 490 012a 8038      		cpi r24,lo8(-128)
 491 012c 01F4      		brne .L37
 492               	.L36:
 493               	.LSM85:
 494 012e 8091 0000 		lds r24,mod_keys
 495               	.LVL33:
 496 0132 8F77      		andi r24,lo8(127)
 497               	.L47:
 498 0134 8093 0000 		sts mod_keys,r24
 499 0138 00C0      		rjmp .L35
 500               	.LVL34:
 501               	.L37:
 502               	.LSM86:
 503 013a 8F77      		andi r24,lo8(127)
 504               	.LVL35:
 505 013c 8095      		com r24
 506 013e 9091 0000 		lds r25,mod_keys
 507 0142 9823      		and r25,r24
 508 0144 9093 0000 		sts mod_keys,r25
 509               	.L35:
 510               	.LSM87:
 511 0148 0E94 0000 		call send
 512 014c 00C0      		rjmp .L19
 513               	.LVL36:
 514               	.L32:
 515 014e E0E0      		ldi r30,lo8(queue)
 516 0150 F0E0      		ldi r31,hi8(queue)
 517               	.LSM88:
 518 0152 80E0      		ldi r24,lo8(0)
 519               	.LVL37:
 520               	.L40:
 521               	.LSM89:
 522 0154 9191      		ld r25,Z+
 523 0156 9017      		cp r25,r16
 524 0158 01F0      		breq .L45
 525               	.LSM90:
 526 015a 8F5F      		subi r24,lo8(-(1))
 527               	.LVL38:
 528 015c 8630      		cpi r24,lo8(6)
 529 015e 01F4      		brne .L40
 530 0160 00C0      		rjmp .L45
 531               	.L42:
 532               	.LSM91:
 533 0162 E82F      		mov r30,r24
 534 0164 F0E0      		ldi r31,lo8(0)
 535 0166 E050      		subi r30,lo8(-(queue))
 536 0168 F040      		sbci r31,hi8(-(queue))
 537 016a 9181      		ldd r25,Z+1
 538 016c 9083      		st Z,r25
 539               	.LSM92:
 540 016e 8F5F      		subi r24,lo8(-(1))
 541               	.LVL39:
 542               	.L45:
 543               	.LSM93:
 544 0170 8630      		cpi r24,lo8(6)
 545 0172 00F0      		brlo .L42
 546               	.LSM94:
 547 0174 0E94 0000 		call send
 548               	.LVL40:
 549               	.LSM95:
 550 0178 8091 0000 		lds r24,last_key
 551 017c 8017      		cp r24,r16
 552 017e 01F4      		brne .L43
 553               	.LSM96:
 554 0180 1092 0000 		sts press_time2+1,__zero_reg__
 555 0184 1092 0000 		sts press_time2,__zero_reg__
 556               	.LSM97:
 557 0188 81E0      		ldi r24,lo8(1)
 558 018a 90E0      		ldi r25,hi8(1)
 559 018c 9093 0000 		sts release_time+1,r25
 560 0190 8093 0000 		sts release_time,r24
 561 0194 00C0      		rjmp .L48
 562               	.L43:
 563               	.LSM98:
 564 0196 1092 0000 		sts press_time+1,__zero_reg__
 565 019a 1092 0000 		sts press_time,__zero_reg__
 566               	.LSM99:
 567 019e 1092 0000 		sts press_time2+1,__zero_reg__
 568 01a2 1092 0000 		sts press_time2,__zero_reg__
 569               	.LSM100:
 570 01a6 1092 0000 		sts release_time+1,__zero_reg__
 571 01aa 1092 0000 		sts release_time,__zero_reg__
 572               	.L48:
 573               	.LSM101:
 574 01ae 1092 0000 		sts repeat_time+1,__zero_reg__
 575 01b2 1092 0000 		sts repeat_time,__zero_reg__
 576               	.L19:
 577               	/* epilogue start */
 578               	.LSM102:
 579 01b6 1F91      		pop r17
 580               	.LVL41:
 581 01b8 0F91      		pop r16
 582               	.LVL42:
 583 01ba 0895      		ret
 584               	.LFE12:
 586               		.section	.text.key_press,"ax",@progbits
 587               	.global	key_press
 589               	key_press:
 590               	.LFB11:
 591               	.LSM103:
 592               	.LVL43:
 593 0000 1F93      		push r17
 594               	/* prologue: function */
 595               	/* frame size = 0 */
 596               	/* stack size = 1 */
 597               	.L__stack_usage = 1
 598 0002 182F      		mov r17,r24
 599               	.LSM104:
 600 0004 6091 0000 		lds r22,mod_keys
 601 0008 962F      		mov r25,r22
 602 000a 9D7D      		andi r25,lo8(-35)
 603               	.LVL44:
 604               	.LSM105:
 605 000c 282F      		mov r18,r24
 606 000e 30E0      		ldi r19,lo8(0)
 607 0010 8091 0000 		lds r24,pressed+35
 608               	.LVL45:
 609 0014 8823      		tst r24
 610 0016 01F4      		brne .L88
 611               	.LSM106:
 612 0018 9923      		tst r25
 613 001a 01F0      		breq .L89
 614               	.LSM107:
 615 001c 82E0      		ldi r24,lo8(2)
 616 001e 00C0      		rjmp .L51
 617               	.L88:
 618 0020 81E0      		ldi r24,lo8(1)
 619 0022 00C0      		rjmp .L51
 620               	.L89:
 621 0024 8FEF      		ldi r24,lo8(-1)
 622               	.L51:
 623               	.LSM108:
 624 0026 F901      		movw r30,r18
 625 0028 E050      		subi r30,lo8(-(pressed))
 626 002a F040      		sbci r31,hi8(-(pressed))
 627 002c 8083      		st Z,r24
 628               	.LSM109:
 629 002e 8130      		cpi r24,lo8(1)
 630 0030 01F4      		brne .L52
 631               	.LSM110:
 632 0032 F901      		movw r30,r18
 633 0034 E050      		subi r30,lo8(-(layer_fn))
 634 0036 F040      		sbci r31,hi8(-(layer_fn))
 635 0038 00C0      		rjmp .L91
 636               	.L52:
 637               	.LSM111:
 638 003a E091 0000 		lds r30,layout
 639 003e F091 0000 		lds r31,layout+1
 640 0042 E10F      		add r30,r17
 641 0044 F11D      		adc r31,__zero_reg__
 642               	.L91:
 643 0046 8081      		ld r24,Z
 644               	.LVL46:
 645               	.LSM112:
 646 0048 8823      		tst r24
 647 004a 01F4      		brne .L54
 648               	.LSM113:
 649 004c 412F      		mov r20,r17
 650 004e 50E0      		ldi r21,lo8(0)
 651 0050 E091 0000 		lds r30,layout
 652 0054 F091 0000 		lds r31,layout+1
 653               	.LVL47:
 654 0058 E40F      		add r30,r20
 655 005a F51F      		adc r31,r21
 656 005c 8081      		ld r24,Z
 657               	.LVL48:
 658               	.LSM114:
 659 005e 9923      		tst r25
 660 0060 01F0      		breq .L90
 661 0062 92E0      		ldi r25,lo8(2)
 662               	.LVL49:
 663 0064 00C0      		rjmp .L55
 664               	.LVL50:
 665               	.L90:
 666 0066 9FEF      		ldi r25,lo8(-1)
 667               	.LVL51:
 668               	.L55:
 669               	.LSM115:
 670 0068 F901      		movw r30,r18
 671               	.LVL52:
 672 006a E050      		subi r30,lo8(-(pressed))
 673 006c F040      		sbci r31,hi8(-(pressed))
 674 006e 9083      		st Z,r25
 675               	.LSM116:
 676 0070 8823      		tst r24
 677 0072 01F4      		brne .L54
 678               	.LSM117:
 679 0074 8091 0000 		lds r24,prev_layer
 680 0078 9091 0000 		lds r25,prev_layer+1
 681               	.LVL53:
 682 007c 0097      		sbiw r24,0
 683 007e 01F4      		brne .+2
 684 0080 00C0      		rjmp .L79
 685 0082 6623      		tst r22
 686 0084 01F0      		breq .+2
 687 0086 00C0      		rjmp .L79
 688               	.LSM118:
 689 0088 480F      		add r20,r24
 690 008a 591F      		adc r21,r25
 691 008c DA01      		movw r26,r20
 692 008e 8C91      		ld r24,X
 693               	.LVL54:
 694               	.LSM119:
 695 0090 96E0      		ldi r25,lo8(6)
 696 0092 9083      		st Z,r25
 697               	.LVL55:
 698               	.L54:
 699               	.LSM120:
 700 0094 813F      		cpi r24,lo8(-15)
 701 0096 00F4      		brsh .+2
 702 0098 00C0      		rjmp .L56
 703               	.LSM121:
 704 009a 8D3F      		cpi r24,lo8(-3)
 705 009c 01F4      		brne .L57
 706               	.LSM122:
 707 009e F901      		movw r30,r18
 708 00a0 E050      		subi r30,lo8(-(pressed))
 709 00a2 F040      		sbci r31,hi8(-(pressed))
 710 00a4 8081      		ld r24,Z
 711               	.LVL56:
 712 00a6 8130      		cpi r24,lo8(1)
 713 00a8 01F4      		brne .L58
 714               	.LSM123:
 715 00aa 8BE2      		ldi r24,lo8(43)
 716 00ac 64E0      		ldi r22,lo8(4)
 717 00ae 00C0      		rjmp .L94
 718               	.L58:
 719               	.LSM124:
 720 00b0 8091 0000 		lds r24,mod_keys
 721 00b4 982F      		mov r25,r24
 722 00b6 9D7D      		andi r25,lo8(-35)
 723 00b8 01F4      		brne .L60
 724               	.LSM125:
 725 00ba 8460      		ori r24,lo8(4)
 726 00bc 8093 0000 		sts mod_keys,r24
 727 00c0 00C0      		rjmp .L61
 728               	.L60:
 729               	.LSM126:
 730 00c2 83E0      		ldi r24,lo8(3)
 731 00c4 8083      		st Z,r24
 732               	.L61:
 733               	.LSM127:
 734 00c6 8091 0000 		lds r24,mod_keys
 735 00ca 8093 0000 		sts keyboard_modifier_keys,r24
 736               	.LSM128:
 737 00ce 8BE2      		ldi r24,lo8(43)
 738 00d0 8093 0000 		sts keyboard_keys,r24
 739               	.LSM129:
 740 00d4 0E94 0000 		call usb_keyboard_send
 741               	.LVL57:
 742               	.LBB26:
 743               	.LBB27:
 744               	.LSM130:
 745 00d8 8FEF      		 ldi r24,lo8(159999)
 746 00da 90E7      	    ldi r25,hi8(159999)
 747 00dc A2E0      	    ldi r26,hlo8(159999)
 748 00de 8150      	    1:subi r24,1
 749 00e0 9040      	    sbci r25,0
 750 00e2 A040      	    sbci r26,0
 751 00e4 01F4      	    brne 1b
 752 00e6 00C0      		rjmp .
 753 00e8 0000      		nop
 754 00ea 00C0      		rjmp .L93
 755               	.LVL58:
 756               	.L57:
 757               	.LBE27:
 758               	.LBE26:
 759               	.LSM131:
 760 00ec 8E3F      		cpi r24,lo8(-2)
 761 00ee 01F4      		brne .L62
 762               	.LSM132:
 763 00f0 2091 0000 		lds r18,prev_layer
 764 00f4 3091 0000 		lds r19,prev_layer+1
 765 00f8 2115      		cp r18,__zero_reg__
 766 00fa 3105      		cpc r19,__zero_reg__
 767 00fc 01F0      		breq .L63
 768               	.LSM133:
 769 00fe 3093 0000 		sts layout+1,r19
 770 0102 2093 0000 		sts layout,r18
 771               	.LSM134:
 772 0106 1092 0000 		sts prev_layer+1,__zero_reg__
 773 010a 1092 0000 		sts prev_layer,__zero_reg__
 774 010e 00C0      		rjmp .L64
 775               	.L63:
 776               	.LSM135:
 777 0110 8091 0000 		lds r24,layout
 778 0114 9091 0000 		lds r25,layout+1
 779               	.LVL59:
 780 0118 9093 0000 		sts prev_layer+1,r25
 781 011c 8093 0000 		sts prev_layer,r24
 782               	.LSM136:
 783 0120 80E0      		ldi r24,lo8(layer_fnlock)
 784 0122 90E0      		ldi r25,hi8(layer_fnlock)
 785 0124 9093 0000 		sts layout+1,r25
 786 0128 8093 0000 		sts layout,r24
 787               	.L64:
 788               	.LSM137:
 789 012c 8091 0000 		lds r24,prev_layer
 790 0130 9091 0000 		lds r25,prev_layer+1
 791 0134 0097      		sbiw r24,0
 792 0136 01F4      		brne .L70
 793               	.LSM138:
 794 0138 8091 0000 		lds r24,mac_mode
 795 013c 8823      		tst r24
 796 013e 01F0      		breq .L71
 797 0140 00C0      		rjmp .L70
 798               	.LVL60:
 799               	.L62:
 800               	.LSM139:
 801 0142 8C3F      		cpi r24,lo8(-4)
 802 0144 01F4      		brne .L67
 803               	.LSM140:
 804 0146 2050      		subi r18,lo8(-(pressed))
 805 0148 3040      		sbci r19,hi8(-(pressed))
 806 014a D901      		movw r26,r18
 807 014c 8C91      		ld r24,X
 808               	.LVL61:
 809 014e 8130      		cpi r24,lo8(1)
 810 0150 01F4      		brne .L68
 811               	.LSM141:
 812 0152 8091 0000 		lds r24,mod_keys
 813 0156 8272      		andi r24,lo8(34)
 814 0158 01F0      		breq .L68
 815               	.LSM142:
 816 015a 81E0      		ldi r24,lo8(1)
 817 015c 9091 0000 		lds r25,mac_mode
 818 0160 9111      		cpse r25,__zero_reg__
 819 0162 80E0      		ldi r24,lo8(0)
 820               	.L69:
 821 0164 8093 0000 		sts mac_mode,r24
 822               	.LSM143:
 823 0168 8823      		tst r24
 824 016a 01F4      		brne .L70
 825               	.LSM144:
 826 016c 8091 0000 		lds r24,prev_layer
 827 0170 9091 0000 		lds r25,prev_layer+1
 828 0174 0097      		sbiw r24,0
 829 0176 01F0      		breq .L71
 830               	.L70:
 831               	.LSM145:
 832 0178 5C9A      		sbi 43-32,4
 833 017a 00C0      		rjmp .L59
 834               	.L71:
 835               	.LSM146:
 836 017c 5C98      		cbi 43-32,4
 837 017e 00C0      		rjmp .L59
 838               	.L68:
 839               	.LSM147:
 840 0180 8CE2      		ldi r24,lo8(44)
 841 0182 6091 0000 		lds r22,mod_keys
 842               	.L94:
 843 0186 0E94 0000 		call usb_keyboard_press
 844 018a 00C0      		rjmp .L59
 845               	.LVL62:
 846               	.L67:
 847               	.LSM148:
 848 018c 813F      		cpi r24,lo8(-15)
 849 018e 01F4      		brne .L72
 850               	.LSM149:
 851 0190 8091 0000 		lds r24,mod_keys
 852               	.LVL63:
 853 0194 982F      		mov r25,r24
 854 0196 9272      		andi r25,lo8(34)
 855 0198 01F0      		breq .L73
 856               	.LSM150:
 857 019a 2050      		subi r18,lo8(-(pressed))
 858 019c 3040      		sbci r19,hi8(-(pressed))
 859 019e 95E0      		ldi r25,lo8(5)
 860 01a0 F901      		movw r30,r18
 861 01a2 9083      		st Z,r25
 862               	.LSM151:
 863 01a4 8160      		ori r24,lo8(1)
 864 01a6 00C0      		rjmp .L96
 865               	.L73:
 866               	.LSM152:
 867 01a8 8823      		tst r24
 868 01aa 01F0      		breq .L74
 869               	.LSM153:
 870 01ac 2050      		subi r18,lo8(-(pressed))
 871 01ae 3040      		sbci r19,hi8(-(pressed))
 872 01b0 94E0      		ldi r25,lo8(4)
 873 01b2 D901      		movw r26,r18
 874 01b4 9C93      		st X,r25
 875               	.L74:
 876               	.LSM154:
 877 01b6 8260      		ori r24,lo8(2)
 878 01b8 00C0      		rjmp .L96
 879               	.LVL64:
 880               	.L72:
 881               	.LSM155:
 882 01ba 823F      		cpi r24,lo8(-14)
 883 01bc 01F4      		brne .L75
 884               	.LSM156:
 885 01be 8091 0000 		lds r24,mod_keys
 886               	.LVL65:
 887 01c2 982F      		mov r25,r24
 888 01c4 9272      		andi r25,lo8(34)
 889 01c6 01F0      		breq .L76
 890               	.LSM157:
 891 01c8 2050      		subi r18,lo8(-(pressed))
 892 01ca 3040      		sbci r19,hi8(-(pressed))
 893 01cc 95E0      		ldi r25,lo8(5)
 894 01ce F901      		movw r30,r18
 895 01d0 9083      		st Z,r25
 896               	.LSM158:
 897 01d2 8061      		ori r24,lo8(16)
 898               	.L96:
 899 01d4 8093 0000 		sts mod_keys,r24
 900 01d8 00C0      		rjmp .L93
 901               	.L76:
 902               	.LSM159:
 903 01da 8823      		tst r24
 904 01dc 01F0      		breq .L77
 905               	.LSM160:
 906 01de 2050      		subi r18,lo8(-(pressed))
 907 01e0 3040      		sbci r19,hi8(-(pressed))
 908 01e2 94E0      		ldi r25,lo8(4)
 909 01e4 D901      		movw r26,r18
 910 01e6 9C93      		st X,r25
 911               	.L77:
 912               	.LSM161:
 913 01e8 8062      		ori r24,lo8(32)
 914 01ea 00C0      		rjmp .L96
 915               	.LVL66:
 916               	.L75:
 917               	.LSM162:
 918 01ec 8B3F      		cpi r24,lo8(-5)
 919 01ee 01F0      		breq .+2
 920 01f0 00C0      		rjmp .L59
 921               	.LSM163:
 922 01f2 81E0      		ldi r24,lo8(1)
 923               	.LVL67:
 924 01f4 9091 0000 		lds r25,turbo_repeat
 925 01f8 9111      		cpse r25,__zero_reg__
 926 01fa 80E0      		ldi r24,lo8(0)
 927               	.L78:
 928 01fc 8093 0000 		sts turbo_repeat,r24
 929 0200 00C0      		rjmp .L59
 930               	.LVL68:
 931               	.L56:
 932               	.LSM164:
 933 0202 87FF      		sbrs r24,7
 934 0204 00C0      		rjmp .L79
 935               	.LSM165:
 936 0206 9091 0000 		lds r25,mac_mode
 937 020a 9923      		tst r25
 938 020c 01F0      		breq .L80
 939               	.LSM166:
 940 020e 8138      		cpi r24,lo8(-127)
 941 0210 01F4      		brne .L81
 942               	.LSM167:
 943 0212 8091 0000 		lds r24,mod_keys
 944               	.LVL69:
 945 0216 8860      		ori r24,lo8(8)
 946 0218 00C0      		rjmp .L96
 947               	.LVL70:
 948               	.L81:
 949               	.LSM168:
 950 021a 8039      		cpi r24,lo8(-112)
 951 021c 01F0      		breq .L83
 952               	.L80:
 953               	.LSM169:
 954 021e 8038      		cpi r24,lo8(-128)
 955 0220 01F4      		brne .L84
 956               	.L83:
 957               	.LSM170:
 958 0222 8091 0000 		lds r24,mod_keys
 959               	.LVL71:
 960 0226 8068      		ori r24,lo8(-128)
 961 0228 00C0      		rjmp .L96
 962               	.LVL72:
 963               	.L84:
 964               	.LSM171:
 965 022a 8F77      		andi r24,lo8(127)
 966               	.LVL73:
 967 022c 9091 0000 		lds r25,mod_keys
 968 0230 982B      		or r25,r24
 969 0232 9093 0000 		sts mod_keys,r25
 970 0236 00C0      		rjmp .L93
 971               	.L79:
 972               	.LSM172:
 973 0238 8091 0000 		lds r24,last_key
 974 023c 8117      		cp r24,r17
 975 023e 01F4      		brne .L85
 976               	.LSM173:
 977 0240 8091 0000 		lds r24,release_time
 978 0244 9091 0000 		lds r25,release_time+1
 979 0248 8A30      		cpi r24,10
 980 024a 9105      		cpc r25,__zero_reg__
 981 024c 00F0      		brlo .L59
 982               	.L85:
 983               	.LVL74:
 984               	.LSM174:
 985 024e 8091 0000 		lds r24,queue+4
 986 0252 8093 0000 		sts queue+5,r24
 987               	.LVL75:
 988 0256 8091 0000 		lds r24,queue+3
 989 025a 8093 0000 		sts queue+4,r24
 990               	.LVL76:
 991 025e 8091 0000 		lds r24,queue+2
 992 0262 8093 0000 		sts queue+3,r24
 993               	.LVL77:
 994 0266 8091 0000 		lds r24,queue+1
 995 026a 8093 0000 		sts queue+2,r24
 996               	.LVL78:
 997 026e 8091 0000 		lds r24,queue
 998 0272 8093 0000 		sts queue+1,r24
 999               	.LVL79:
 1000               	.LSM175:
 1001 0276 1093 0000 		sts queue,r17
 1002               	.LVL80:
 1003               	.L93:
 1004               	.LSM176:
 1005 027a 0E94 0000 		call send
 1006               	.L59:
 1007               	.LSM177:
 1008 027e 8091 0000 		lds r24,last_key
 1009 0282 8117      		cp r24,r17
 1010 0284 01F4      		brne .L86
 1011               	.LSM178:
 1012 0286 81E0      		ldi r24,lo8(1)
 1013 0288 90E0      		ldi r25,hi8(1)
 1014 028a 9093 0000 		sts press_time2+1,r25
 1015 028e 8093 0000 		sts press_time2,r24
 1016 0292 00C0      		rjmp .L95
 1017               	.L86:
 1018               	.LSM179:
 1019 0294 1093 0000 		sts last_key,r17
 1020               	.LSM180:
 1021 0298 81E0      		ldi r24,lo8(1)
 1022 029a 90E0      		ldi r25,hi8(1)
 1023 029c 9093 0000 		sts press_time+1,r25
 1024 02a0 8093 0000 		sts press_time,r24
 1025               	.LSM181:
 1026 02a4 1092 0000 		sts press_time2+1,__zero_reg__
 1027 02a8 1092 0000 		sts press_time2,__zero_reg__
 1028               	.LSM182:
 1029 02ac 1092 0000 		sts release_time+1,__zero_reg__
 1030 02b0 1092 0000 		sts release_time,__zero_reg__
 1031               	.L95:
 1032               	.LSM183:
 1033 02b4 1092 0000 		sts repeat_time+1,__zero_reg__
 1034 02b8 1092 0000 		sts repeat_time,__zero_reg__
 1035               	/* epilogue start */
 1036               	.LSM184:
 1037 02bc 1F91      		pop r17
 1038               	.LVL81:
 1039 02be 0895      		ret
 1040               	.LFE11:
 1042               		.section	.text.repeat_tick,"ax",@progbits
 1043               	.global	repeat_tick
 1045               	repeat_tick:
 1046               	.LFB10:
 1047               	.LSM185:
 1048               	/* prologue: function */
 1049               	/* frame size = 0 */
 1050               	/* stack size = 0 */
 1051               	.L__stack_usage = 0
 1052               	.LSM186:
 1053 0000 8091 0000 		lds r24,repeat_time
 1054 0004 9091 0000 		lds r25,repeat_time+1
 1055 0008 0097      		sbiw r24,0
 1056 000a 01F0      		breq .L98
 1057               	.LSM187:
 1058 000c 2091 0000 		lds r18,release_time
 1059 0010 3091 0000 		lds r19,release_time+1
 1060 0014 3695      		lsr r19
 1061 0016 2795      		ror r18
 1062 0018 3695      		lsr r19
 1063 001a 2795      		ror r18
 1064 001c 8217      		cp r24,r18
 1065 001e 9307      		cpc r25,r19
 1066 0020 00F4      		brsh .L99
 1067               	.LSM188:
 1068 0022 0196      		adiw r24,1
 1069 0024 00C0      		rjmp .L108
 1070               	.L99:
 1071               	.LSM189:
 1072 0026 81E0      		ldi r24,lo8(1)
 1073 0028 90E0      		ldi r25,hi8(1)
 1074 002a 9093 0000 		sts repeat_time+1,r25
 1075 002e 8093 0000 		sts repeat_time,r24
 1076               	.LSM190:
 1077 0032 8091 0000 		lds r24,turbo_repeat
 1078 0036 8823      		tst r24
 1079 0038 01F4      		brne .+2
 1080 003a 00C0      		rjmp .L97
 1081               	.LSM191:
 1082 003c 8091 0000 		lds r24,mod_keys
 1083 0040 8093 0000 		sts keyboard_modifier_keys,r24
 1084               	.LSM192:
 1085 0044 8091 0000 		lds r24,last_key
 1086 0048 0E94 0000 		call get_code
 1087 004c 8093 0000 		sts keyboard_keys,r24
 1088               	.LSM193:
 1089 0050 0E94 0000 		call usb_keyboard_send
 1090 0054 8823      		tst r24
 1091 0056 01F0      		breq .+2
 1092 0058 00C0      		rjmp .L97
 1093               	.LSM194:
 1094 005a 1092 0000 		sts keyboard_keys,__zero_reg__
 1095               	.LSM195:
 1096 005e 0E94 0000 		call usb_keyboard_send
 1097 0062 0895      		ret
 1098               	.L98:
 1099               	.LSM196:
 1100 0064 8091 0000 		lds r24,press_time2
 1101 0068 9091 0000 		lds r25,press_time2+1
 1102 006c 0097      		sbiw r24,0
 1103 006e 01F0      		breq .L101
 1104               	.LSM197:
 1105 0070 4091 0000 		lds r20,press_time
 1106 0074 5091 0000 		lds r21,press_time+1
 1107 0078 2091 0000 		lds r18,pressed+35
 1108 007c 2223      		tst r18
 1109 007e 01F0      		breq .L107
 1110 0080 25E0      		ldi r18,lo8(5)
 1111 0082 30E0      		ldi r19,hi8(5)
 1112 0084 00C0      		rjmp .L102
 1113               	.L107:
 1114 0086 2EE1      		ldi r18,lo8(30)
 1115 0088 30E0      		ldi r19,hi8(30)
 1116               	.L102:
 1117               	.LSM198:
 1118 008a 240F      		add r18,r20
 1119 008c 351F      		adc r19,r21
 1120 008e 8217      		cp r24,r18
 1121 0090 9307      		cpc r25,r19
 1122 0092 00F4      		brsh .L103
 1123               	.LSM199:
 1124 0094 0196      		adiw r24,1
 1125 0096 9093 0000 		sts press_time2+1,r25
 1126 009a 8093 0000 		sts press_time2,r24
 1127 009e 0895      		ret
 1128               	.L103:
 1129               	.LSM200:
 1130 00a0 81E0      		ldi r24,lo8(1)
 1131 00a2 90E0      		ldi r25,hi8(1)
 1132               	.L108:
 1133 00a4 9093 0000 		sts repeat_time+1,r25
 1134 00a8 8093 0000 		sts repeat_time,r24
 1135 00ac 0895      		ret
 1136               	.L101:
 1137               	.LSM201:
 1138 00ae 2091 0000 		lds r18,release_time
 1139 00b2 3091 0000 		lds r19,release_time+1
 1140 00b6 8091 0000 		lds r24,press_time
 1141 00ba 9091 0000 		lds r25,press_time+1
 1142 00be 2115      		cp r18,__zero_reg__
 1143 00c0 3105      		cpc r19,__zero_reg__
 1144 00c2 01F0      		breq .L104
 1145               	.LSM202:
 1146 00c4 C296      		adiw r24,50
 1147 00c6 2817      		cp r18,r24
 1148 00c8 3907      		cpc r19,r25
 1149 00ca 00F4      		brsh .L105
 1150               	.LSM203:
 1151 00cc 2F5F      		subi r18,lo8(-(1))
 1152 00ce 3F4F      		sbci r19,hi8(-(1))
 1153 00d0 3093 0000 		sts release_time+1,r19
 1154 00d4 2093 0000 		sts release_time,r18
 1155 00d8 0895      		ret
 1156               	.L105:
 1157               	.LSM204:
 1158 00da 1092 0000 		sts last_key,__zero_reg__
 1159               	.LSM205:
 1160 00de 1092 0000 		sts release_time+1,__zero_reg__
 1161 00e2 1092 0000 		sts release_time,__zero_reg__
 1162               	.LSM206:
 1163 00e6 1092 0000 		sts press_time+1,__zero_reg__
 1164 00ea 1092 0000 		sts press_time,__zero_reg__
 1165               	.LSM207:
 1166 00ee 1092 0000 		sts press_time2+1,__zero_reg__
 1167 00f2 1092 0000 		sts press_time2,__zero_reg__
 1168 00f6 0895      		ret
 1169               	.L104:
 1170               	.LSM208:
 1171 00f8 0097      		sbiw r24,0
 1172 00fa 01F0      		breq .L97
 1173               	.LSM209:
 1174 00fc 8A3F      		cpi r24,250
 1175 00fe 9105      		cpc r25,__zero_reg__
 1176 0100 00F4      		brsh .L106
 1177               	.LSM210:
 1178 0102 0196      		adiw r24,1
 1179 0104 9093 0000 		sts press_time+1,r25
 1180 0108 8093 0000 		sts press_time,r24
 1181 010c 0895      		ret
 1182               	.L106:
 1183               	.LSM211:
 1184 010e 1092 0000 		sts press_time+1,__zero_reg__
 1185 0112 1092 0000 		sts press_time,__zero_reg__
 1186               	.L97:
 1187 0116 0895      		ret
 1188               	.LFE10:
 1190               		.section	.text.poll,"ax",@progbits
 1191               	.global	poll
 1193               	poll:
 1194               	.LFB9:
 1195               	.LSM212:
 1196 0000 8F92      		push r8
 1197 0002 9F92      		push r9
 1198 0004 AF92      		push r10
 1199 0006 BF92      		push r11
 1200 0008 CF92      		push r12
 1201 000a DF92      		push r13
 1202 000c EF92      		push r14
 1203 000e FF92      		push r15
 1204 0010 0F93      		push r16
 1205 0012 1F93      		push r17
 1206 0014 CF93      		push r28
 1207 0016 DF93      		push r29
 1208               	/* prologue: function */
 1209               	/* frame size = 0 */
 1210               	/* stack size = 12 */
 1211               	.L__stack_usage = 12
 1212               	.LVL82:
 1213               	.LSM213:
 1214 0018 00E0      		ldi r16,lo8(row_port)
 1215 001a 10E0      		ldi r17,hi8(row_port)
 1216 001c C0E0      		ldi r28,lo8(row_bit)
 1217 001e D0E0      		ldi r29,hi8(row_bit)
 1218               	.LSM214:
 1219 0020 9924      		clr r9
 1220               	.LVL83:
 1221               	.L113:
 1222               	.LSM215:
 1223 0022 D801      		movw r26,r16
 1224 0024 ED91      		ld r30,X+
 1225 0026 FC91      		ld r31,X
 1226               	.LSM216:
 1227 0028 5E01      		movw r10,r28
 1228               	.LSM217:
 1229 002a 9881      		ld r25,Y
 1230 002c 9095      		com r25
 1231 002e 8081      		ld r24,Z
 1232 0030 8923      		and r24,r25
 1233 0032 8083      		st Z,r24
 1234               	.LVL84:
 1235               	.LBB28:
 1236               	.LBB29:
 1237               	.LSM218:
 1238 0034 B5E0      		 ldi r27,lo8(5)
 1239 0036 BA95      	    1:dec r27
 1240 0038 01F4      	    brne 1b
 1241 003a 0000      		nop
 1242               	.LVL85:
 1243 003c 60E0      		ldi r22,lo8(col_pin)
 1244 003e E62E      		mov r14,r22
 1245 0040 60E0      		ldi r22,hi8(col_pin)
 1246 0042 F62E      		mov r15,r22
 1247 0044 50E0      		ldi r21,lo8(col_bit)
 1248 0046 C52E      		mov r12,r21
 1249 0048 50E0      		ldi r21,hi8(col_bit)
 1250 004a D52E      		mov r13,r21
 1251               	.LBE29:
 1252               	.LBE28:
 1253               	.LSM219:
 1254 004c 892C      		mov r8,r9
 1255               	.LVL86:
 1256               	.L112:
 1257               	.LSM220:
 1258 004e D701      		movw r26,r14
 1259 0050 ED91      		ld r30,X+
 1260 0052 FD91      		ld r31,X+
 1261 0054 7D01      		movw r14,r26
 1262 0056 D601      		movw r26,r12
 1263 0058 8D91      		ld r24,X+
 1264 005a 6D01      		movw r12,r26
 1265 005c 9081      		ld r25,Z
 1266 005e 8923      		and r24,r25
 1267 0060 282D      		mov r18,r8
 1268 0062 30E0      		ldi r19,lo8(0)
 1269 0064 01F4      		brne .L110
 1270               	.LSM221:
 1271 0066 2050      		subi r18,lo8(-(pressed))
 1272 0068 3040      		sbci r19,hi8(-(pressed))
 1273 006a F901      		movw r30,r18
 1274 006c 8081      		ld r24,Z
 1275 006e 8823      		tst r24
 1276 0070 01F4      		brne .L111
 1277               	.LSM222:
 1278 0072 882D      		mov r24,r8
 1279 0074 0E94 0000 		call key_press
 1280 0078 00C0      		rjmp .L111
 1281               	.L110:
 1282               	.LSM223:
 1283 007a 2050      		subi r18,lo8(-(pressed))
 1284 007c 3040      		sbci r19,hi8(-(pressed))
 1285 007e D901      		movw r26,r18
 1286 0080 8C91      		ld r24,X
 1287 0082 8823      		tst r24
 1288 0084 01F0      		breq .L111
 1289               	.LSM224:
 1290 0086 882D      		mov r24,r8
 1291 0088 0E94 0000 		call key_release
 1292               	.L111:
 1293 008c B5E0      		ldi r27,lo8(5)
 1294 008e 8B0E      		add r8,r27
 1295               	.LVL87:
 1296               	.LSM225:
 1297 0090 E0E0      		ldi r30,lo8(col_pin+24)
 1298 0092 EE16      		cp r14,r30
 1299 0094 E0E0      		ldi r30,hi8(col_pin+24)
 1300 0096 FE06      		cpc r15,r30
 1301 0098 01F4      		brne .L112
 1302               	.LSM226:
 1303 009a D801      		movw r26,r16
 1304 009c ED91      		ld r30,X+
 1305 009e FD91      		ld r31,X+
 1306 00a0 8D01      		movw r16,r26
 1307 00a2 2196      		adiw r28,1
 1308 00a4 8081      		ld r24,Z
 1309 00a6 D501      		movw r26,r10
 1310 00a8 9C91      		ld r25,X
 1311 00aa 892B      		or r24,r25
 1312 00ac 8083      		st Z,r24
 1313               	.LSM227:
 1314 00ae 9394      		inc r9
 1315               	.LVL88:
 1316 00b0 B92D      		mov r27,r9
 1317 00b2 B530      		cpi r27,lo8(5)
 1318 00b4 01F0      		breq .+2
 1319 00b6 00C0      		rjmp .L113
 1320               	.LSM228:
 1321 00b8 0E94 0000 		call repeat_tick
 1322               	.LVL89:
 1323               	.LBB30:
 1324               	.LBB31:
 1325               	.LSM229:
 1326 00bc EFE1      		 ldi r30,lo8(19999)
 1327 00be FEE4      	    ldi r31,hi8(19999)
 1328 00c0 3197      	    1:sbiw r30,1
 1329 00c2 01F4      	    brne 1b
 1330 00c4 00C0      		rjmp .
 1331 00c6 0000      		nop
 1332               	/* epilogue start */
 1333               	.LBE31:
 1334               	.LBE30:
 1335               	.LSM230:
 1336 00c8 DF91      		pop r29
 1337 00ca CF91      		pop r28
 1338 00cc 1F91      		pop r17
 1339 00ce 0F91      		pop r16
 1340 00d0 FF90      		pop r15
 1341 00d2 EF90      		pop r14
 1342 00d4 DF90      		pop r13
 1343 00d6 CF90      		pop r12
 1344 00d8 BF90      		pop r11
 1345 00da AF90      		pop r10
 1346 00dc 9F90      		pop r9
 1347               	.LVL90:
 1348 00de 8F90      		pop r8
 1349               	.LVL91:
 1350 00e0 0895      		ret
 1351               	.LFE9:
 1353               		.section	.text.main,"ax",@progbits
 1354               	.global	main
 1356               	main:
 1357               	.LFB7:
 1358               	.LSM231:
 1359               	/* prologue: function */
 1360               	/* frame size = 0 */
 1361               	/* stack size = 0 */
 1362               	.L__stack_usage = 0
 1363               	.LSM232:
 1364 0000 84B7      		in r24,84-32
 1365 0002 877F      		andi r24,lo8(-9)
 1366 0004 84BF      		out 84-32,r24
 1367               	.LSM233:
 1368 0006 88E1      		ldi r24,lo8(24)
 1369               	/* #APP */
 1370               	 ;  163 "catboard.c" 1
 1371 0008 0FB6      		in __tmp_reg__, __SREG__
 1372 000a F894      		cli
 1373 000c 8093 6000 		sts 96, r24
 1374 0010 1092 6000 		sts 96, __zero_reg__
 1375 0014 0FBE      		out __SREG__,__tmp_reg__
 1376               		
 1377               	 ;  0 "" 2
 1378               	.LVL92:
 1379               	/* #NOAPP */
 1380               	.LBB32:
 1381               	.LBB33:
 1382               	.LSM234:
 1383 0016 90E0      		ldi r25,lo8(0)
 1384 0018 80E8      		ldi r24,lo8(-128)
 1385               	/* #APP */
 1386               	 ;  1492 "/usr/lib/gcc/avr/4.5.3/../../../avr/include/avr/power.h" 1
 1387 001a 0FB6      		in __tmp_reg__,__SREG__
 1388 001c F894      		cli
 1389 001e 8093 6100 		sts 97, r24
 1390 0022 9093 6100 		sts 97, r25
 1391 0026 0FBE      		out __SREG__, __tmp_reg__
 1392               	 ;  0 "" 2
 1393               	/* #NOAPP */
 1394               	.LBE33:
 1395               	.LBE32:
 1396               	.LSM235:
 1397 0028 0E94 0000 		call init
 1398               	.L117:
 1399               	.LSM236:
 1400 002c 0E94 0000 		call poll
 1401 0030 00C0      		rjmp .L117
 1402               	.LFE7:
 1404               	.global	layer2
 1405               		.data
 1408               	layer2:
 1409 0000 29        		.byte	41
 1410 0001 F1        		.byte	-15
 1411 0002 90        		.byte	-112
 1412 0003 2B        		.byte	43
 1413 0004 35        		.byte	53
 1414 0005 FD        		.byte	-3
 1415 0006 14        		.byte	20
 1416 0007 09        		.byte	9
 1417 0008 0D        		.byte	13
 1418 0009 1E        		.byte	30
 1419 000a 84        		.byte	-124
 1420 000b 38        		.byte	56
 1421 000c 1C        		.byte	28
 1422 000d 06        		.byte	6
 1423 000e 1F        		.byte	31
 1424 000f 84        		.byte	-124
 1425 0010 16        		.byte	22
 1426 0011 19        		.byte	25
 1427 0012 18        		.byte	24
 1428 0013 20        		.byte	32
 1429 0014 81        		.byte	-127
 1430 0015 10        		.byte	16
 1431 0016 04        		.byte	4
 1432 0017 0E        		.byte	14
 1433 0018 21        		.byte	33
 1434 0019 82        		.byte	-126
 1435 001a 0C        		.byte	12
 1436 001b 13        		.byte	19
 1437 001c 08        		.byte	8
 1438 001d 22        		.byte	34
 1439 001e 2C        		.byte	44
 1440 001f 17        		.byte	23
 1441 0020 15        		.byte	21
 1442 0021 11        		.byte	17
 1443 0022 23        		.byte	35
 1444 0023 FF        		.byte	-1
 1445 0024 1B        		.byte	27
 1446 0025 12        		.byte	18
 1447 0026 0A        		.byte	10
 1448 0027 24        		.byte	36
 1449 0028 C0        		.byte	-64
 1450 0029 05        		.byte	5
 1451 002a 0F        		.byte	15
 1452 002b 0B        		.byte	11
 1453 002c 25        		.byte	37
 1454 002d 31        		.byte	49
 1455 002e 36        		.byte	54
 1456 002f 07        		.byte	7
 1457 0030 1A        		.byte	26
 1458 0031 26        		.byte	38
 1459 0032 30        		.byte	48
 1460 0033 37        		.byte	55
 1461 0034 33        		.byte	51
 1462 0035 1D        		.byte	29
 1463 0036 27        		.byte	39
 1464 0037 2E        		.byte	46
 1465 0038 F2        		.byte	-14
 1466 0039 34        		.byte	52
 1467 003a 2F        		.byte	47
 1468 003b 2D        		.byte	45
 1469               	.global	layout
 1472               	layout:
 1473 003c 0000      		.word	layer2
 1474               	.global	mac_mode
 1475               	.global	mac_mode
 1476               		.section .bss
 1479               	mac_mode:
 1480 0000 00        		.skip 1,0
 1481               	.global	layer1
 1482               		.data
 1485               	layer1:
 1486 003e 29        		.byte	41
 1487 003f F1        		.byte	-15
 1488 0040 90        		.byte	-112
 1489 0041 2B        		.byte	43
 1490 0042 35        		.byte	53
 1491 0043 FD        		.byte	-3
 1492 0044 1D        		.byte	29
 1493 0045 04        		.byte	4
 1494 0046 14        		.byte	20
 1495 0047 1E        		.byte	30
 1496 0048 84        		.byte	-124
 1497 0049 1B        		.byte	27
 1498 004a 16        		.byte	22
 1499 004b 1A        		.byte	26
 1500 004c 1F        		.byte	31
 1501 004d 84        		.byte	-124
 1502 004e 06        		.byte	6
 1503 004f 07        		.byte	7
 1504 0050 08        		.byte	8
 1505 0051 20        		.byte	32
 1506 0052 81        		.byte	-127
 1507 0053 19        		.byte	25
 1508 0054 09        		.byte	9
 1509 0055 15        		.byte	21
 1510 0056 21        		.byte	33
 1511 0057 82        		.byte	-126
 1512 0058 05        		.byte	5
 1513 0059 0A        		.byte	10
 1514 005a 17        		.byte	23
 1515 005b 22        		.byte	34
 1516 005c 2C        		.byte	44
 1517 005d 11        		.byte	17
 1518 005e 0B        		.byte	11
 1519 005f 1C        		.byte	28
 1520 0060 23        		.byte	35
 1521 0061 FF        		.byte	-1
 1522 0062 10        		.byte	16
 1523 0063 0D        		.byte	13
 1524 0064 18        		.byte	24
 1525 0065 24        		.byte	36
 1526 0066 C0        		.byte	-64
 1527 0067 36        		.byte	54
 1528 0068 0E        		.byte	14
 1529 0069 0C        		.byte	12
 1530 006a 25        		.byte	37
 1531 006b 31        		.byte	49
 1532 006c 37        		.byte	55
 1533 006d 0F        		.byte	15
 1534 006e 12        		.byte	18
 1535 006f 26        		.byte	38
 1536 0070 30        		.byte	48
 1537 0071 38        		.byte	56
 1538 0072 33        		.byte	51
 1539 0073 13        		.byte	19
 1540 0074 27        		.byte	39
 1541 0075 2E        		.byte	46
 1542 0076 F2        		.byte	-14
 1543 0077 34        		.byte	52
 1544 0078 2F        		.byte	47
 1545 0079 2D        		.byte	45
 1546               	.global	layer_fn
 1549               	layer_fn:
 1550 007a FB        		.byte	-5
 1551 007b F1        		.byte	-15
 1552 007c 90        		.byte	-112
 1553 007d 2B        		.byte	43
 1554 007e 46        		.byte	70
 1555 007f FD        		.byte	-3
 1556 0080 00        		.byte	0
 1557 0081 00        		.byte	0
 1558 0082 00        		.byte	0
 1559 0083 3A        		.byte	58
 1560 0084 84        		.byte	-124
 1561 0085 00        		.byte	0
 1562 0086 00        		.byte	0
 1563 0087 00        		.byte	0
 1564 0088 3B        		.byte	59
 1565 0089 84        		.byte	-124
 1566 008a 00        		.byte	0
 1567 008b 00        		.byte	0
 1568 008c 00        		.byte	0
 1569 008d 3C        		.byte	60
 1570 008e 81        		.byte	-127
 1571 008f 00        		.byte	0
 1572 0090 00        		.byte	0
 1573 0091 00        		.byte	0
 1574 0092 3D        		.byte	61
 1575 0093 82        		.byte	-126
 1576 0094 00        		.byte	0
 1577 0095 00        		.byte	0
 1578 0096 35        		.byte	53
 1579 0097 3E        		.byte	62
 1580 0098 FC        		.byte	-4
 1581 0099 2A        		.byte	42
 1582 009a 28        		.byte	40
 1583 009b 28        		.byte	40
 1584 009c 3F        		.byte	63
 1585 009d FF        		.byte	-1
 1586 009e 4C        		.byte	76
 1587 009f 50        		.byte	80
 1588 00a0 4A        		.byte	74
 1589 00a1 40        		.byte	64
 1590 00a2 FE        		.byte	-2
 1591 00a3 49        		.byte	73
 1592 00a4 51        		.byte	81
 1593 00a5 52        		.byte	82
 1594 00a6 41        		.byte	65
 1595 00a7 00        		.byte	0
 1596 00a8 00        		.byte	0
 1597 00a9 4F        		.byte	79
 1598 00aa 4D        		.byte	77
 1599 00ab 42        		.byte	66
 1600 00ac 47        		.byte	71
 1601 00ad 00        		.byte	0
 1602 00ae 4E        		.byte	78
 1603 00af 4B        		.byte	75
 1604 00b0 43        		.byte	67
 1605 00b1 45        		.byte	69
 1606 00b2 F2        		.byte	-14
 1607 00b3 48        		.byte	72
 1608 00b4 29        		.byte	41
 1609 00b5 44        		.byte	68
 1610               	.global	layer_fnlock
 1613               	layer_fnlock:
 1614 00b6 29        		.byte	41
 1615 00b7 82        		.byte	-126
 1616 00b8 90        		.byte	-112
 1617 00b9 2B        		.byte	43
 1618 00ba 35        		.byte	53
 1619 00bb FD        		.byte	-3
 1620 00bc 00        		.byte	0
 1621 00bd 4E        		.byte	78
 1622 00be 4B        		.byte	75
 1623 00bf 1E        		.byte	30
 1624 00c0 84        		.byte	-124
 1625 00c1 00        		.byte	0
 1626 00c2 50        		.byte	80
 1627 00c3 4A        		.byte	74
 1628 00c4 1F        		.byte	31
 1629 00c5 84        		.byte	-124
 1630 00c6 00        		.byte	0
 1631 00c7 51        		.byte	81
 1632 00c8 52        		.byte	82
 1633 00c9 20        		.byte	32
 1634 00ca 81        		.byte	-127
 1635 00cb 00        		.byte	0
 1636 00cc 4F        		.byte	79
 1637 00cd 4D        		.byte	77
 1638 00ce 21        		.byte	33
 1639 00cf 2C        		.byte	44
 1640 00d0 00        		.byte	0
 1641 00d1 28        		.byte	40
 1642 00d2 35        		.byte	53
 1643 00d3 22        		.byte	34
 1644 00d4 2C        		.byte	44
 1645 00d5 62        		.byte	98
 1646 00d6 55        		.byte	85
 1647 00d7 54        		.byte	84
 1648 00d8 23        		.byte	35
 1649 00d9 FF        		.byte	-1
 1650 00da 59        		.byte	89
 1651 00db 5C        		.byte	92
 1652 00dc 5F        		.byte	95
 1653 00dd 24        		.byte	36
 1654 00de C0        		.byte	-64
 1655 00df 5A        		.byte	90
 1656 00e0 5D        		.byte	93
 1657 00e1 60        		.byte	96
 1658 00e2 25        		.byte	37
 1659 00e3 28        		.byte	40
 1660 00e4 5B        		.byte	91
 1661 00e5 5E        		.byte	94
 1662 00e6 61        		.byte	97
 1663 00e7 26        		.byte	38
 1664 00e8 53        		.byte	83
 1665 00e9 63        		.byte	99
 1666 00ea 57        		.byte	87
 1667 00eb 56        		.byte	86
 1668 00ec 27        		.byte	39
 1669 00ed 2E        		.byte	46
 1670 00ee A0        		.byte	-96
 1671 00ef 28        		.byte	40
 1672 00f0 29        		.byte	41
 1673 00f1 2D        		.byte	45
 1674               	.global	row_port
 1677               	row_port:
 1678 00f2 2800      		.word	40
 1679 00f4 2800      		.word	40
 1680 00f6 2800      		.word	40
 1681 00f8 2800      		.word	40
 1682 00fa 2800      		.word	40
 1683               	.global	row_bit
 1686               	row_bit:
 1687 00fc 80        		.byte	-128
 1688 00fd 40        		.byte	64
 1689 00fe 20        		.byte	32
 1690 00ff 10        		.byte	16
 1691 0100 04        		.byte	4
 1692               	.global	col_pin
 1695               	col_pin:
 1696 0101 2900      		.word	41
 1697 0103 2900      		.word	41
 1698 0105 2900      		.word	41
 1699 0107 2900      		.word	41
 1700 0109 2900      		.word	41
 1701 010b 2900      		.word	41
 1702 010d 2300      		.word	35
 1703 010f 2300      		.word	35
 1704 0111 2300      		.word	35
 1705 0113 2300      		.word	35
 1706 0115 2300      		.word	35
 1707 0117 2300      		.word	35
 1708               	.global	col_bit
 1711               	col_bit:
 1712 0119 40        		.byte	64
 1713 011a 20        		.byte	32
 1714 011b 08        		.byte	8
 1715 011c 04        		.byte	4
 1716 011d 02        		.byte	2
 1717 011e 01        		.byte	1
 1718 011f 80        		.byte	-128
 1719 0120 40        		.byte	64
 1720 0121 20        		.byte	32
 1721 0122 10        		.byte	16
 1722 0123 02        		.byte	2
 1723 0124 01        		.byte	1
 1724               	.global	queue
 1727               	queue:
 1728 0125 FF        		.byte	-1
 1729 0126 FF        		.byte	-1
 1730 0127 FF        		.byte	-1
 1731 0128 FF        		.byte	-1
 1732 0129 FF        		.byte	-1
 1733 012a FF        		.byte	-1
 1734 012b FF        		.byte	-1
 1735               	.global	mod_keys
 1736               	.global	mod_keys
 1737               		.section .bss
 1740               	mod_keys:
 1741 0001 00        		.skip 1,0
 1742               	.global	prev_layer
 1743               	.global	prev_layer
 1746               	prev_layer:
 1747 0002 0000      		.skip 2,0
 1748               	.global	turbo_repeat
 1749               		.data
 1752               	turbo_repeat:
 1753 012c 01        		.byte	1
 1754               	.global	last_key
 1755               	.global	last_key
 1756               		.section .bss
 1759               	last_key:
 1760 0004 00        		.skip 1,0
 1761               	.global	press_time
 1762               	.global	press_time
 1765               	press_time:
 1766 0005 0000      		.skip 2,0
 1767               	.global	press_time2
 1768               	.global	press_time2
 1771               	press_time2:
 1772 0007 0000      		.skip 2,0
 1773               	.global	release_time
 1774               	.global	release_time
 1777               	release_time:
 1778 0009 0000      		.skip 2,0
 1779               	.global	repeat_time
 1780               	.global	repeat_time
 1783               	repeat_time:
 1784 000b 0000      		.skip 2,0
 1785               		.comm pressed,60,1
 1874               	.Letext0:
DEFINED SYMBOLS
                            *ABS*:00000000 catboard.c
     /tmp/ccuve9Pb.s:2      *ABS*:0000003f __SREG__
     /tmp/ccuve9Pb.s:3      *ABS*:0000003e __SP_H__
     /tmp/ccuve9Pb.s:4      *ABS*:0000003d __SP_L__
     /tmp/ccuve9Pb.s:5      *ABS*:00000034 __CCP__
     /tmp/ccuve9Pb.s:6      *ABS*:00000000 __tmp_reg__
     /tmp/ccuve9Pb.s:7      *ABS*:00000001 __zero_reg__
     /tmp/ccuve9Pb.s:19     .text.change_layout:00000000 change_layout
     /tmp/ccuve9Pb.s:1479   .bss:00000000 mac_mode
     /tmp/ccuve9Pb.s:92     .text.init:00000000 init
                            *COM*:0000003c pressed
     /tmp/ccuve9Pb.s:167    .text.get_code:00000000 get_code
     /tmp/ccuve9Pb.s:1549   .data:0000007a layer_fn
     /tmp/ccuve9Pb.s:1472   .data:0000003c layout
     /tmp/ccuve9Pb.s:1485   .data:0000003e layer1
     /tmp/ccuve9Pb.s:240    .text.send:00000000 send
     /tmp/ccuve9Pb.s:1727   .data:00000125 queue
     /tmp/ccuve9Pb.s:1740   .bss:00000001 mod_keys
     /tmp/ccuve9Pb.s:287    .text.key_release:00000000 key_release
     /tmp/ccuve9Pb.s:1746   .bss:00000002 prev_layer
     /tmp/ccuve9Pb.s:1759   .bss:00000004 last_key
     /tmp/ccuve9Pb.s:1408   .data:00000000 layer2
     /tmp/ccuve9Pb.s:1771   .bss:00000007 press_time2
     /tmp/ccuve9Pb.s:1777   .bss:00000009 release_time
     /tmp/ccuve9Pb.s:1765   .bss:00000005 press_time
     /tmp/ccuve9Pb.s:1783   .bss:0000000b repeat_time
     /tmp/ccuve9Pb.s:589    .text.key_press:00000000 key_press
     /tmp/ccuve9Pb.s:1613   .data:000000b6 layer_fnlock
     /tmp/ccuve9Pb.s:1752   .data:0000012c turbo_repeat
     /tmp/ccuve9Pb.s:1045   .text.repeat_tick:00000000 repeat_tick
     /tmp/ccuve9Pb.s:1193   .text.poll:00000000 poll
     /tmp/ccuve9Pb.s:1677   .data:000000f2 row_port
     /tmp/ccuve9Pb.s:1686   .data:000000fc row_bit
     /tmp/ccuve9Pb.s:1695   .data:00000101 col_pin
     /tmp/ccuve9Pb.s:1711   .data:00000119 col_bit
     /tmp/ccuve9Pb.s:1356   .text.main:00000000 main

UNDEFINED SYMBOLS
keyboard_modifier_keys
keyboard_keys
usb_keyboard_send
usb_keyboard_press
usb_init
usb_configured
__do_copy_data
__do_clear_bss
