
catboard.elf:     file format elf32-avr

Sections:
Idx Name          Size      VMA       LMA       File off  Algn
  0 .data         00000130  00800100  00000d28  00000dbc  2**0
                  CONTENTS, ALLOC, LOAD, DATA
  1 .text         00000d28  00000000  00000000  00000094  2**1
                  CONTENTS, ALLOC, LOAD, READONLY, CODE
  2 .bss          00000054  00800230  00800230  00000eec  2**0
                  ALLOC
  3 .stab         000006cc  00000000  00000000  00000eec  2**2
                  CONTENTS, READONLY, DEBUGGING
  4 .stabstr      00000054  00000000  00000000  000015b8  2**0
                  CONTENTS, READONLY, DEBUGGING
  5 .debug_aranges 000000b0  00000000  00000000  0000160c  2**0
                  CONTENTS, READONLY, DEBUGGING
  6 .debug_pubnames 0000024e  00000000  00000000  000016bc  2**0
                  CONTENTS, READONLY, DEBUGGING
  7 .debug_info   00000fd5  00000000  00000000  0000190a  2**0
                  CONTENTS, READONLY, DEBUGGING
  8 .debug_abbrev 0000045c  00000000  00000000  000028df  2**0
                  CONTENTS, READONLY, DEBUGGING
  9 .debug_line   00000f9a  00000000  00000000  00002d3b  2**0
                  CONTENTS, READONLY, DEBUGGING
 10 .debug_frame  00000120  00000000  00000000  00003cd8  2**2
                  CONTENTS, READONLY, DEBUGGING
 11 .debug_str    00000549  00000000  00000000  00003df8  2**0
                  CONTENTS, READONLY, DEBUGGING
 12 .debug_loc    00000be2  00000000  00000000  00004341  2**0
                  CONTENTS, READONLY, DEBUGGING
 13 .debug_pubtypes 000000d1  00000000  00000000  00004f23  2**0
                  CONTENTS, READONLY, DEBUGGING
 14 .debug_ranges 000000a8  00000000  00000000  00004ff4  2**0
                  CONTENTS, READONLY, DEBUGGING

Disassembly of section .text:

00000000 <__vectors>:
   0:	a2 c0       	rjmp	.+324    	; 0x146 <__ctors_end>
   2:	00 00       	nop
   4:	bb c0       	rjmp	.+374    	; 0x17c <__bad_interrupt>
   6:	00 00       	nop
   8:	b9 c0       	rjmp	.+370    	; 0x17c <__bad_interrupt>
   a:	00 00       	nop
   c:	b7 c0       	rjmp	.+366    	; 0x17c <__bad_interrupt>
   e:	00 00       	nop
  10:	b5 c0       	rjmp	.+362    	; 0x17c <__bad_interrupt>
  12:	00 00       	nop
  14:	b3 c0       	rjmp	.+358    	; 0x17c <__bad_interrupt>
  16:	00 00       	nop
  18:	b1 c0       	rjmp	.+354    	; 0x17c <__bad_interrupt>
  1a:	00 00       	nop
  1c:	af c0       	rjmp	.+350    	; 0x17c <__bad_interrupt>
  1e:	00 00       	nop
  20:	ad c0       	rjmp	.+346    	; 0x17c <__bad_interrupt>
  22:	00 00       	nop
  24:	ab c0       	rjmp	.+342    	; 0x17c <__bad_interrupt>
  26:	00 00       	nop
  28:	a9 c0       	rjmp	.+338    	; 0x17c <__bad_interrupt>
  2a:	00 00       	nop
  2c:	a4 c4       	rjmp	.+2376   	; 0x976 <__vector_11>
  2e:	00 00       	nop
  30:	01 c5       	rjmp	.+2562   	; 0xa34 <__vector_12>
  32:	00 00       	nop
  34:	a3 c0       	rjmp	.+326    	; 0x17c <__bad_interrupt>
  36:	00 00       	nop
  38:	a1 c0       	rjmp	.+322    	; 0x17c <__bad_interrupt>
  3a:	00 00       	nop
  3c:	9f c0       	rjmp	.+318    	; 0x17c <__bad_interrupt>
  3e:	00 00       	nop
  40:	9d c0       	rjmp	.+314    	; 0x17c <__bad_interrupt>
  42:	00 00       	nop
  44:	9b c0       	rjmp	.+310    	; 0x17c <__bad_interrupt>
  46:	00 00       	nop
  48:	99 c0       	rjmp	.+306    	; 0x17c <__bad_interrupt>
  4a:	00 00       	nop
  4c:	97 c0       	rjmp	.+302    	; 0x17c <__bad_interrupt>
  4e:	00 00       	nop
  50:	95 c0       	rjmp	.+298    	; 0x17c <__bad_interrupt>
  52:	00 00       	nop
  54:	93 c0       	rjmp	.+294    	; 0x17c <__bad_interrupt>
  56:	00 00       	nop
  58:	91 c0       	rjmp	.+290    	; 0x17c <__bad_interrupt>
  5a:	00 00       	nop
  5c:	8f c0       	rjmp	.+286    	; 0x17c <__bad_interrupt>
  5e:	00 00       	nop
  60:	8d c0       	rjmp	.+282    	; 0x17c <__bad_interrupt>
  62:	00 00       	nop
  64:	8b c0       	rjmp	.+278    	; 0x17c <__bad_interrupt>
  66:	00 00       	nop
  68:	89 c0       	rjmp	.+274    	; 0x17c <__bad_interrupt>
  6a:	00 00       	nop
  6c:	87 c0       	rjmp	.+270    	; 0x17c <__bad_interrupt>
  6e:	00 00       	nop
  70:	85 c0       	rjmp	.+266    	; 0x17c <__bad_interrupt>
  72:	00 00       	nop

00000074 <descriptor_list>:
  74:	00 01 00 00 ab 00 12 00 02 00 00 bd 00 22 00 22     ............."."
  84:	00 00 df 00 3f 00 21 00 00 cf 00 09 00 03 00 00     ....?.!.........
  94:	1e 01 04 01 03 09 04 22 01 0e 02 03 09 04 32 01     ......."......2.
  a4:	12                                                  .

000000a5 <endpoint_config_table>:
  a5:	00 00 01 c1 06 00                                   ......

000000ab <device_descriptor>:
  ab:	12 01 00 02 00 00 00 20 c0 16 7c 04 00 01 01 02     ....... ..|.....
  bb:	00 01                                               ..

000000bd <config1_descriptor>:
  bd:	09 02 22 00 01 01 00 c0 32 09 04 00 00 01 03 01     ..".....2.......
  cd:	01 00 09 21 11 01 00 01 22 3f 00 07 05 83 03 08     ...!...."?......
  dd:	00 01                                               ..

000000df <keyboard_hid_report_desc>:
  df:	05 01 09 06 a1 01 75 01 95 08 05 07 19 e0 29 e7     ......u.......).
  ef:	15 00 25 01 81 02 95 01 75 08 81 03 95 05 75 01     ..%.....u.....u.
  ff:	05 08 19 01 29 05 91 02 95 01 75 03 91 03 95 06     ....).....u.....
 10f:	75 08 15 00 25 68 05 07 19 00 29 68 81 00 c0        u...%h....)h...

0000011e <string0>:
 11e:	04 03 09 04                                         ....

00000122 <string1>:
 122:	0e 03 69 00 62 00 6e 00 54 00 65 00 6f 00 00 00     ..i.b.n.T.e.o...

00000132 <string2>:
 132:	12 03 43 00 61 00 74 00 62 00 6f 00 61 00 72 00     ..C.a.t.b.o.a.r.
 142:	64 00 00 00                                         d...

00000146 <__ctors_end>:
 146:	11 24       	eor	r1, r1
 148:	1f be       	out	0x3f, r1	; 63
 14a:	cf ef       	ldi	r28, 0xFF	; 255
 14c:	d2 e0       	ldi	r29, 0x02	; 2
 14e:	de bf       	out	0x3e, r29	; 62
 150:	cd bf       	out	0x3d, r28	; 61

00000152 <__do_copy_data>:
 152:	12 e0       	ldi	r17, 0x02	; 2
 154:	a0 e0       	ldi	r26, 0x00	; 0
 156:	b1 e0       	ldi	r27, 0x01	; 1
 158:	e8 e2       	ldi	r30, 0x28	; 40
 15a:	fd e0       	ldi	r31, 0x0D	; 13
 15c:	02 c0       	rjmp	.+4      	; 0x162 <__do_copy_data+0x10>
 15e:	05 90       	lpm	r0, Z+
 160:	0d 92       	st	X+, r0
 162:	a0 33       	cpi	r26, 0x30	; 48
 164:	b1 07       	cpc	r27, r17
 166:	d9 f7       	brne	.-10     	; 0x15e <__do_copy_data+0xc>

00000168 <__do_clear_bss>:
 168:	12 e0       	ldi	r17, 0x02	; 2
 16a:	a0 e3       	ldi	r26, 0x30	; 48
 16c:	b2 e0       	ldi	r27, 0x02	; 2
 16e:	01 c0       	rjmp	.+2      	; 0x172 <.do_clear_bss_start>

00000170 <.do_clear_bss_loop>:
 170:	1d 92       	st	X+, r1

00000172 <.do_clear_bss_start>:
 172:	a4 38       	cpi	r26, 0x84	; 132
 174:	b1 07       	cpc	r27, r17
 176:	e1 f7       	brne	.-8      	; 0x170 <.do_clear_bss_loop>
 178:	84 d3       	rcall	.+1800   	; 0x882 <main>
 17a:	d4 c5       	rjmp	.+2984   	; 0xd24 <_exit>

0000017c <__bad_interrupt>:
 17c:	41 cf       	rjmp	.-382    	; 0x0 <__vectors>

0000017e <change_layout>:
		}
	}
}

void change_layout(void) {
	if (KEY_LAYOUT==KEY_LAYOUT_GUI_SPACE || mac_mode) { // Press Cmd+Space
 17e:	80 91 30 02 	lds	r24, 0x0230
 182:	88 23       	and	r24, r24
 184:	91 f0       	breq	.+36     	; 0x1aa <change_layout+0x2c>
		keyboard_modifier_keys = KEY_GUI;
 186:	88 e0       	ldi	r24, 0x08	; 8
 188:	80 93 3d 02 	sts	0x023D, r24
		keyboard_keys[0] = 0;
 18c:	10 92 3e 02 	sts	0x023E, r1
		usb_keyboard_send();
 190:	ab d3       	rcall	.+1878   	; 0x8e8 <usb_keyboard_send>
	#else
		//round up by default
		__ticks_dc = (uint32_t)(ceil(fabs(__tmp)));
	#endif

	__builtin_avr_delay_cycles(__ticks_dc);
 192:	8f ef       	ldi	r24, 0xFF	; 255
 194:	90 e7       	ldi	r25, 0x70	; 112
 196:	a2 e0       	ldi	r26, 0x02	; 2
 198:	81 50       	subi	r24, 0x01	; 1
 19a:	90 40       	sbci	r25, 0x00	; 0
 19c:	a0 40       	sbci	r26, 0x00	; 0
 19e:	e1 f7       	brne	.-8      	; 0x198 <change_layout+0x1a>
 1a0:	00 c0       	rjmp	.+0      	; 0x1a2 <change_layout+0x24>
 1a2:	00 00       	nop
		_delay_ms(50);
		usb_keyboard_press(KEY_SPACE, KEY_GUI);
 1a4:	8c e2       	ldi	r24, 0x2C	; 44
 1a6:	68 e0       	ldi	r22, 0x08	; 8
 1a8:	11 c0       	rjmp	.+34     	; 0x1cc <change_layout+0x4e>
	} else if (KEY_LAYOUT==KEY_LAYOUT_ALT_SHIFT) { // Press Alt+Shift
		keyboard_modifier_keys = KEY_ALT;
 1aa:	84 e0       	ldi	r24, 0x04	; 4
 1ac:	80 93 3d 02 	sts	0x023D, r24
		keyboard_keys[0] = 0;
 1b0:	10 92 3e 02 	sts	0x023E, r1
		usb_keyboard_send();
 1b4:	99 d3       	rcall	.+1842   	; 0x8e8 <usb_keyboard_send>
 1b6:	8f ef       	ldi	r24, 0xFF	; 255
 1b8:	90 e7       	ldi	r25, 0x70	; 112
 1ba:	a2 e0       	ldi	r26, 0x02	; 2
 1bc:	81 50       	subi	r24, 0x01	; 1
 1be:	90 40       	sbci	r25, 0x00	; 0
 1c0:	a0 40       	sbci	r26, 0x00	; 0
 1c2:	e1 f7       	brne	.-8      	; 0x1bc <change_layout+0x3e>
 1c4:	00 c0       	rjmp	.+0      	; 0x1c6 <change_layout+0x48>
 1c6:	00 00       	nop
		_delay_ms(50);
		usb_keyboard_press(0, KEY_ALT|KEY_SHIFT);
 1c8:	80 e0       	ldi	r24, 0x00	; 0
 1ca:	66 e0       	ldi	r22, 0x06	; 6
 1cc:	c7 c3       	rjmp	.+1934   	; 0x95c <usb_keyboard_press>

000001ce <init>:
	}
}

void init(void) {
	// Set for 16 MHz clock
	CLKPR = 0x80; CLKPR = 0;
 1ce:	80 e8       	ldi	r24, 0x80	; 128
 1d0:	80 93 61 00 	sts	0x0061, r24
 1d4:	10 92 61 00 	sts	0x0061, r1

	// Init ports
	DDRB	= 0x00; DDRC	= 0b11110100;	DDRD	= 0x00;
 1d8:	14 b8       	out	0x04, r1	; 4
 1da:	94 ef       	ldi	r25, 0xF4	; 244
 1dc:	97 b9       	out	0x07, r25	; 7
 1de:	1a b8       	out	0x0a, r1	; 10
	PORTB	= 0xFF; PORTC	= 0b11110100; 	PORTD	= 0xFF;
 1e0:	8f ef       	ldi	r24, 0xFF	; 255
 1e2:	85 b9       	out	0x05, r24	; 5
 1e4:	98 b9       	out	0x08, r25	; 8
 1e6:	8b b9       	out	0x0b, r24	; 11

	LED_CONFIG;
 1e8:	54 9a       	sbi	0x0a, 4	; 10
	LED_ON;
 1ea:	5c 9a       	sbi	0x0b, 4	; 11
 1ec:	e8 e4       	ldi	r30, 0x48	; 72
 1ee:	f2 e0       	ldi	r31, 0x02	; 2

	for (uint8_t i=0; i<KEYS; i++) {
		pressed[i] = 0;
 1f0:	11 92       	st	Z+, r1
	PORTB	= 0xFF; PORTC	= 0b11110100; 	PORTD	= 0xFF;

	LED_CONFIG;
	LED_ON;

	for (uint8_t i=0; i<KEYS; i++) {
 1f2:	82 e0       	ldi	r24, 0x02	; 2
 1f4:	e4 38       	cpi	r30, 0x84	; 132
 1f6:	f8 07       	cpc	r31, r24
 1f8:	d9 f7       	brne	.-10     	; 0x1f0 <init+0x22>
		pressed[i] = 0;
	}

	usb_init();
 1fa:	5f d3       	rcall	.+1726   	; 0x8ba <usb_init>
	LED_OFF;
 1fc:	5c 98       	cbi	0x0b, 4	; 11
	while(!usb_configured());
 1fe:	71 d3       	rcall	.+1762   	; 0x8e2 <usb_configured>
 200:	88 23       	and	r24, r24
 202:	e9 f3       	breq	.-6      	; 0x1fe <init+0x30>
	LED_ON;
 204:	5c 9a       	sbi	0x0b, 4	; 11
 206:	8f ef       	ldi	r24, 0xFF	; 255
 208:	93 ed       	ldi	r25, 0xD3	; 211
 20a:	a0 e3       	ldi	r26, 0x30	; 48
 20c:	81 50       	subi	r24, 0x01	; 1
 20e:	90 40       	sbci	r25, 0x00	; 0
 210:	a0 40       	sbci	r26, 0x00	; 0
 212:	e1 f7       	brne	.-8      	; 0x20c <init+0x3e>
 214:	00 c0       	rjmp	.+0      	; 0x216 <init+0x48>
 216:	00 00       	nop
	_delay_ms(1000);
	LED_OFF;
 218:	5c 98       	cbi	0x0b, 4	; 11
}
 21a:	08 95       	ret

0000021c <get_code>:
	usb_keyboard_send();
}

uint8_t get_code(uint8_t key_id) {
	uint8_t key_code = 0;
	if (key_id<KEYS) { // not 0xFF
 21c:	8c 33       	cpi	r24, 0x3C	; 60
 21e:	18 f5       	brcc	.+70     	; 0x266 <get_code+0x4a>
		if (pressed[key_id]==KEY_PRESSED_FN) { // key+Fn key
 220:	28 2f       	mov	r18, r24
 222:	30 e0       	ldi	r19, 0x00	; 0
 224:	f9 01       	movw	r30, r18
 226:	e8 5b       	subi	r30, 0xB8	; 184
 228:	fd 4f       	sbci	r31, 0xFD	; 253
 22a:	90 81       	ld	r25, Z
 22c:	91 30       	cpi	r25, 0x01	; 1
 22e:	41 f4       	brne	.+16     	; 0x240 <get_code+0x24>
			if (layer_fn[key_id]>0 && layer_fn[key_id]<0x80) {
 230:	26 58       	subi	r18, 0x86	; 134
 232:	3e 4f       	sbci	r19, 0xFE	; 254
 234:	f9 01       	movw	r30, r18
 236:	80 81       	ld	r24, Z
 238:	18 16       	cp	r1, r24
 23a:	b4 f0       	brlt	.+44     	; 0x268 <get_code+0x4c>
	keyboard_modifier_keys = mod_keys;
	usb_keyboard_send();
}

uint8_t get_code(uint8_t key_id) {
	uint8_t key_code = 0;
 23c:	80 e0       	ldi	r24, 0x00	; 0
 23e:	08 95       	ret
	if (key_id<KEYS) { // not 0xFF
		if (pressed[key_id]==KEY_PRESSED_FN) { // key+Fn key
			if (layer_fn[key_id]>0 && layer_fn[key_id]<0x80) {
				key_code = layer_fn[key_id];
			}
		} else if (layout!=layer_fn && pressed[key_id]==KEY_PRESSED_MODS) { // keyboard shortcuts from layer1
 240:	40 91 3c 01 	lds	r20, 0x013C
 244:	50 91 3d 01 	lds	r21, 0x013D
 248:	f1 e0       	ldi	r31, 0x01	; 1
 24a:	4a 37       	cpi	r20, 0x7A	; 122
 24c:	5f 07       	cpc	r21, r31
 24e:	31 f0       	breq	.+12     	; 0x25c <get_code+0x40>
 250:	92 30       	cpi	r25, 0x02	; 2
 252:	21 f4       	brne	.+8      	; 0x25c <get_code+0x40>
			key_code = (KEY_SHORTCUTS_LAYER1 ? layer1[key_id] : layer2[key_id]);
 254:	22 5c       	subi	r18, 0xC2	; 194
 256:	3e 4f       	sbci	r19, 0xFE	; 254
 258:	f9 01       	movw	r30, r18
 25a:	03 c0       	rjmp	.+6      	; 0x262 <get_code+0x46>
		} else {
			key_code = layout[key_id];
 25c:	48 0f       	add	r20, r24
 25e:	51 1d       	adc	r21, r1
 260:	fa 01       	movw	r30, r20
 262:	80 81       	ld	r24, Z
 264:	08 95       	ret
	keyboard_modifier_keys = mod_keys;
	usb_keyboard_send();
}

uint8_t get_code(uint8_t key_id) {
	uint8_t key_code = 0;
 266:	80 e0       	ldi	r24, 0x00	; 0
		} else {
			key_code = layout[key_id];
		}
	}
	return key_code;
}
 268:	08 95       	ret

0000026a <send>:
		_delay_ms(50);
		usb_keyboard_press(0, KEY_CTRL|KEY_SHIFT);
	}
}

void send(void) {
 26a:	0f 93       	push	r16
 26c:	1f 93       	push	r17
 26e:	cf 93       	push	r28
 270:	df 93       	push	r29
 272:	c5 e2       	ldi	r28, 0x25	; 37
 274:	d2 e0       	ldi	r29, 0x02	; 2
 276:	0e e3       	ldi	r16, 0x3E	; 62
 278:	12 e0       	ldi	r17, 0x02	; 2
	uint8_t i;
	for (i=0; i<6; i++) {
		keyboard_keys[i] = get_code(queue[i]);
 27a:	89 91       	ld	r24, Y+
 27c:	cf df       	rcall	.-98     	; 0x21c <get_code>
 27e:	f8 01       	movw	r30, r16
 280:	81 93       	st	Z+, r24
 282:	8f 01       	movw	r16, r30
	}
}

void send(void) {
	uint8_t i;
	for (i=0; i<6; i++) {
 284:	f2 e0       	ldi	r31, 0x02	; 2
 286:	cb 32       	cpi	r28, 0x2B	; 43
 288:	df 07       	cpc	r29, r31
 28a:	b9 f7       	brne	.-18     	; 0x27a <send+0x10>
		keyboard_keys[i] = get_code(queue[i]);
	}
	keyboard_modifier_keys = mod_keys;
 28c:	80 91 31 02 	lds	r24, 0x0231
 290:	80 93 3d 02 	sts	0x023D, r24
	usb_keyboard_send();
 294:	29 d3       	rcall	.+1618   	; 0x8e8 <usb_keyboard_send>
}
 296:	df 91       	pop	r29
 298:	cf 91       	pop	r28
 29a:	1f 91       	pop	r17
 29c:	0f 91       	pop	r16
 29e:	08 95       	ret

000002a0 <key_release>:
			repeat_time = 0;
		}
	}
}

void key_release(uint8_t key_id) {
 2a0:	df 93       	push	r29
 2a2:	cf 93       	push	r28
 2a4:	0f 92       	push	r0
 2a6:	cd b7       	in	r28, 0x3d	; 61
 2a8:	de b7       	in	r29, 0x3e	; 62
	uint8_t i;
	int8_t pressed_key_id = pressed[key_id];
 2aa:	28 2f       	mov	r18, r24
 2ac:	30 e0       	ldi	r19, 0x00	; 0
 2ae:	f9 01       	movw	r30, r18
 2b0:	e8 5b       	subi	r30, 0xB8	; 184
 2b2:	fd 4f       	sbci	r31, 0xFD	; 253
 2b4:	60 81       	ld	r22, Z
	uint8_t key_code = ((pressed_key_id==KEY_PRESSED_FN) ? layer_fn[key_id] : layout[key_id]);
 2b6:	61 30       	cpi	r22, 0x01	; 1
 2b8:	21 f4       	brne	.+8      	; 0x2c2 <key_release+0x22>
 2ba:	f9 01       	movw	r30, r18
 2bc:	e6 58       	subi	r30, 0x86	; 134
 2be:	fe 4f       	sbci	r31, 0xFE	; 254
 2c0:	13 c0       	rjmp	.+38     	; 0x2e8 <key_release+0x48>
 2c2:	e0 91 3c 01 	lds	r30, 0x013C
 2c6:	f0 91 3d 01 	lds	r31, 0x013D
 2ca:	e2 0f       	add	r30, r18
 2cc:	f3 1f       	adc	r31, r19
 2ce:	90 81       	ld	r25, Z
	if (pressed_key_id==KEY_PRESSED_PREV && prev_layer) {
 2d0:	65 30       	cpi	r22, 0x05	; 5
 2d2:	59 f4       	brne	.+22     	; 0x2ea <key_release+0x4a>
 2d4:	40 91 32 02 	lds	r20, 0x0232
 2d8:	50 91 33 02 	lds	r21, 0x0233
 2dc:	41 15       	cp	r20, r1
 2de:	51 05       	cpc	r21, r1
 2e0:	21 f0       	breq	.+8      	; 0x2ea <key_release+0x4a>
		key_code = prev_layer[key_id];
 2e2:	42 0f       	add	r20, r18
 2e4:	53 1f       	adc	r21, r19
 2e6:	fa 01       	movw	r30, r20
 2e8:	90 81       	ld	r25, Z
	}
	pressed[key_id] = 0;
 2ea:	28 5b       	subi	r18, 0xB8	; 184
 2ec:	3d 4f       	sbci	r19, 0xFD	; 253
 2ee:	f9 01       	movw	r30, r18
 2f0:	10 82       	st	Z, r1
	if (key_code>0xF0) { // Catboard keys release
 2f2:	91 3f       	cpi	r25, 0xF1	; 241
 2f4:	98 f0       	brcs	.+38     	; 0x31c <__stack+0x1d>
		if (key_code==KEY_ALT_TAB && pressed_key_id!=KEY_PRESSED_ALT) { // AltTab: Alt release
 2f6:	9d 3f       	cpi	r25, 0xFD	; 253
 2f8:	31 f4       	brne	.+12     	; 0x306 <__stack+0x7>
 2fa:	63 30       	cpi	r22, 0x03	; 3
 2fc:	21 f0       	breq	.+8      	; 0x306 <__stack+0x7>
			mod_keys &= ~(KEY_ALT);
 2fe:	80 91 31 02 	lds	r24, 0x0231
 302:	8b 7f       	andi	r24, 0xFB	; 251
 304:	24 c0       	rjmp	.+72     	; 0x34e <__stack+0x4f>
			send();
		} else if ((key_code==KEY_LAYER1 || key_code==KEY_LAYER2) && pressed_key_id==KEY_PRESSED_SHIFT) { // Mod + Layer = Shift
 306:	91 5f       	subi	r25, 0xF1	; 241
 308:	92 30       	cpi	r25, 0x02	; 2
 30a:	08 f0       	brcs	.+2      	; 0x30e <__stack+0xf>
 30c:	59 c0       	rjmp	.+178    	; 0x3c0 <__stack+0xc1>
 30e:	64 30       	cpi	r22, 0x04	; 4
 310:	09 f0       	breq	.+2      	; 0x314 <__stack+0x15>
 312:	56 c0       	rjmp	.+172    	; 0x3c0 <__stack+0xc1>
			mod_keys &= ~(KEY_SHIFT);
 314:	80 91 31 02 	lds	r24, 0x0231
 318:	8d 7f       	andi	r24, 0xFD	; 253
 31a:	19 c0       	rjmp	.+50     	; 0x34e <__stack+0x4f>
			send();
		}
	} else if (key_code>=0x80) { // Mod keys release
 31c:	97 ff       	sbrs	r25, 7
 31e:	1b c0       	rjmp	.+54     	; 0x356 <__stack+0x57>
		if (mac_mode && key_code==(KEY_CTRL|KEY_MOD)) {
 320:	80 91 30 02 	lds	r24, 0x0230
 324:	88 23       	and	r24, r24
 326:	41 f0       	breq	.+16     	; 0x338 <__stack+0x39>
 328:	91 38       	cpi	r25, 0x81	; 129
 32a:	21 f4       	brne	.+8      	; 0x334 <__stack+0x35>
			mod_keys &= ~KEY_GUI;
 32c:	80 91 31 02 	lds	r24, 0x0231
 330:	87 7f       	andi	r24, 0xF7	; 247
 332:	0d c0       	rjmp	.+26     	; 0x34e <__stack+0x4f>
		} else if ((mac_mode && key_code==(KEY_RIGHT_CTRL|KEY_MOD)) || key_code==(KEY_RIGHT_GUI|KEY_MOD)) {
 334:	90 39       	cpi	r25, 0x90	; 144
 336:	11 f0       	breq	.+4      	; 0x33c <__stack+0x3d>
 338:	90 38       	cpi	r25, 0x80	; 128
 33a:	21 f4       	brne	.+8      	; 0x344 <__stack+0x45>
			mod_keys &= ~KEY_RIGHT_GUI;
 33c:	80 91 31 02 	lds	r24, 0x0231
 340:	8f 77       	andi	r24, 0x7F	; 127
 342:	05 c0       	rjmp	.+10     	; 0x34e <__stack+0x4f>
		} else {
			mod_keys &= ~(key_code & 0x7F);
 344:	9f 77       	andi	r25, 0x7F	; 127
 346:	90 95       	com	r25
 348:	80 91 31 02 	lds	r24, 0x0231
 34c:	89 23       	and	r24, r25
 34e:	80 93 31 02 	sts	0x0231, r24
		}
		send();
 352:	8b df       	rcall	.-234    	; 0x26a <send>
 354:	35 c0       	rjmp	.+106    	; 0x3c0 <__stack+0xc1>
 356:	e5 e2       	ldi	r30, 0x25	; 37
 358:	f2 e0       	ldi	r31, 0x02	; 2
			send();
		} else if ((key_code==KEY_LAYER1 || key_code==KEY_LAYER2) && pressed_key_id==KEY_PRESSED_SHIFT) { // Mod + Layer = Shift
			mod_keys &= ~(KEY_SHIFT);
			send();
		}
	} else if (key_code>=0x80) { // Mod keys release
 35a:	90 e0       	ldi	r25, 0x00	; 0
			mod_keys &= ~(key_code & 0x7F);
		}
		send();
	} else {
		for (i=0; i<6; i++) {
			if (queue[i]==key_id) {
 35c:	21 91       	ld	r18, Z+
 35e:	28 17       	cp	r18, r24
 360:	59 f0       	breq	.+22     	; 0x378 <__stack+0x79>
		} else {
			mod_keys &= ~(key_code & 0x7F);
		}
		send();
	} else {
		for (i=0; i<6; i++) {
 362:	9f 5f       	subi	r25, 0xFF	; 255
 364:	96 30       	cpi	r25, 0x06	; 6
 366:	d1 f7       	brne	.-12     	; 0x35c <__stack+0x5d>
 368:	07 c0       	rjmp	.+14     	; 0x378 <__stack+0x79>
			if (queue[i]==key_id) {
				break;
			}
		}
		for (; i<6; i++) {
			queue[i] = queue[i+1];
 36a:	e9 2f       	mov	r30, r25
 36c:	f0 e0       	ldi	r31, 0x00	; 0
 36e:	eb 5d       	subi	r30, 0xDB	; 219
 370:	fd 4f       	sbci	r31, 0xFD	; 253
 372:	21 81       	ldd	r18, Z+1	; 0x01
 374:	20 83       	st	Z, r18
		for (i=0; i<6; i++) {
			if (queue[i]==key_id) {
				break;
			}
		}
		for (; i<6; i++) {
 376:	9f 5f       	subi	r25, 0xFF	; 255
 378:	96 30       	cpi	r25, 0x06	; 6
 37a:	b8 f3       	brcs	.-18     	; 0x36a <__stack+0x6b>
			queue[i] = queue[i+1];
		}
		send();
 37c:	89 83       	std	Y+1, r24	; 0x01
 37e:	75 df       	rcall	.-278    	; 0x26a <send>
		// Autorepeat
		if (last_key==key_id) { // realise time
 380:	90 91 34 02 	lds	r25, 0x0234
 384:	89 81       	ldd	r24, Y+1	; 0x01
 386:	98 17       	cp	r25, r24
 388:	59 f4       	brne	.+22     	; 0x3a0 <__stack+0xa1>
			press_time2 = 0;
 38a:	10 92 38 02 	sts	0x0238, r1
 38e:	10 92 37 02 	sts	0x0237, r1
			release_time = 1;
 392:	81 e0       	ldi	r24, 0x01	; 1
 394:	90 e0       	ldi	r25, 0x00	; 0
 396:	90 93 3a 02 	sts	0x023A, r25
 39a:	80 93 39 02 	sts	0x0239, r24
 39e:	0c c0       	rjmp	.+24     	; 0x3b8 <__stack+0xb9>
			repeat_time = 0;
		} else { // reset
			press_time = 0;
 3a0:	10 92 36 02 	sts	0x0236, r1
 3a4:	10 92 35 02 	sts	0x0235, r1
			press_time2 = 0;
 3a8:	10 92 38 02 	sts	0x0238, r1
 3ac:	10 92 37 02 	sts	0x0237, r1
			release_time = 0;
 3b0:	10 92 3a 02 	sts	0x023A, r1
 3b4:	10 92 39 02 	sts	0x0239, r1
			repeat_time = 0;
 3b8:	10 92 3c 02 	sts	0x023C, r1
 3bc:	10 92 3b 02 	sts	0x023B, r1
		}
	}
}
 3c0:	0f 90       	pop	r0
 3c2:	cf 91       	pop	r28
 3c4:	df 91       	pop	r29
 3c6:	08 95       	ret

000003c8 <key_press>:
			press_time = 0;
		}
	}	
}

void key_press(uint8_t key_id) {
 3c8:	df 93       	push	r29
 3ca:	cf 93       	push	r28
 3cc:	0f 92       	push	r0
 3ce:	cd b7       	in	r28, 0x3d	; 61
 3d0:	de b7       	in	r29, 0x3e	; 62
	uint8_t i;
	uint8_t mods_pressed = (mod_keys & (KEY_CTRL|KEY_RIGHT_CTRL|KEY_ALT|KEY_RIGHT_ALT|KEY_GUI|KEY_RIGHT_GUI));
 3d2:	a0 91 31 02 	lds	r26, 0x0231
 3d6:	6a 2f       	mov	r22, r26
 3d8:	6d 7d       	andi	r22, 0xDD	; 221
	pressed[key_id] = (pressed[FN_KEY_ID] ? KEY_PRESSED_FN : (mods_pressed ? KEY_PRESSED_MODS : -1));
 3da:	28 2f       	mov	r18, r24
 3dc:	30 e0       	ldi	r19, 0x00	; 0
 3de:	90 91 6b 02 	lds	r25, 0x026B
 3e2:	99 23       	and	r25, r25
 3e4:	21 f4       	brne	.+8      	; 0x3ee <key_press+0x26>
 3e6:	66 23       	and	r22, r22
 3e8:	21 f0       	breq	.+8      	; 0x3f2 <key_press+0x2a>
 3ea:	92 e0       	ldi	r25, 0x02	; 2
 3ec:	03 c0       	rjmp	.+6      	; 0x3f4 <key_press+0x2c>
 3ee:	91 e0       	ldi	r25, 0x01	; 1
 3f0:	01 c0       	rjmp	.+2      	; 0x3f4 <key_press+0x2c>
 3f2:	9f ef       	ldi	r25, 0xFF	; 255
 3f4:	f9 01       	movw	r30, r18
 3f6:	e8 5b       	subi	r30, 0xB8	; 184
 3f8:	fd 4f       	sbci	r31, 0xFD	; 253
 3fa:	90 83       	st	Z, r25
	
	uint8_t key_code = ((pressed[key_id]==KEY_PRESSED_FN) ? layer_fn[key_id] : layout[key_id]);
 3fc:	91 30       	cpi	r25, 0x01	; 1
 3fe:	21 f4       	brne	.+8      	; 0x408 <key_press+0x40>
 400:	f9 01       	movw	r30, r18
 402:	e6 58       	subi	r30, 0x86	; 134
 404:	fe 4f       	sbci	r31, 0xFE	; 254
 406:	06 c0       	rjmp	.+12     	; 0x414 <key_press+0x4c>
 408:	e0 91 3c 01 	lds	r30, 0x013C
 40c:	f0 91 3d 01 	lds	r31, 0x013D
 410:	e8 0f       	add	r30, r24
 412:	f1 1d       	adc	r31, r1
 414:	90 81       	ld	r25, Z
	if (key_code==NULL) {
 416:	99 23       	and	r25, r25
 418:	29 f5       	brne	.+74     	; 0x464 <key_press+0x9c>
		key_code = layout[key_id];
 41a:	48 2f       	mov	r20, r24
 41c:	50 e0       	ldi	r21, 0x00	; 0
 41e:	e0 91 3c 01 	lds	r30, 0x013C
 422:	f0 91 3d 01 	lds	r31, 0x013D
 426:	e4 0f       	add	r30, r20
 428:	f5 1f       	adc	r31, r21
 42a:	90 81       	ld	r25, Z
		pressed[key_id] = (mods_pressed ? KEY_PRESSED_MODS : -1);
 42c:	66 23       	and	r22, r22
 42e:	11 f0       	breq	.+4      	; 0x434 <key_press+0x6c>
 430:	62 e0       	ldi	r22, 0x02	; 2
 432:	01 c0       	rjmp	.+2      	; 0x436 <key_press+0x6e>
 434:	6f ef       	ldi	r22, 0xFF	; 255
 436:	f9 01       	movw	r30, r18
 438:	e8 5b       	subi	r30, 0xB8	; 184
 43a:	fd 4f       	sbci	r31, 0xFD	; 253
 43c:	60 83       	st	Z, r22
		if (key_code==NULL && prev_layer && ! mod_keys) {
 43e:	99 23       	and	r25, r25
 440:	89 f4       	brne	.+34     	; 0x464 <key_press+0x9c>
 442:	60 91 32 02 	lds	r22, 0x0232
 446:	70 91 33 02 	lds	r23, 0x0233
 44a:	61 15       	cp	r22, r1
 44c:	71 05       	cpc	r23, r1
 44e:	09 f4       	brne	.+2      	; 0x452 <key_press+0x8a>
 450:	cc c0       	rjmp	.+408    	; 0x5ea <key_press+0x222>
 452:	aa 23       	and	r26, r26
 454:	09 f0       	breq	.+2      	; 0x458 <key_press+0x90>
 456:	c9 c0       	rjmp	.+402    	; 0x5ea <key_press+0x222>
			key_code = prev_layer[key_id];
 458:	46 0f       	add	r20, r22
 45a:	57 1f       	adc	r21, r23
 45c:	da 01       	movw	r26, r20
 45e:	9c 91       	ld	r25, X
			pressed[key_id] = KEY_PRESSED_PREV;
 460:	45 e0       	ldi	r20, 0x05	; 5
 462:	40 83       	st	Z, r20
		}
	}
	
	if (key_code>0xF0) { // Catboard keys
 464:	91 3f       	cpi	r25, 0xF1	; 241
 466:	08 f4       	brcc	.+2      	; 0x46a <key_press+0xa2>
 468:	be c0       	rjmp	.+380    	; 0x5e6 <key_press+0x21e>
		if (key_code==KEY_ALT_TAB) { // AltTab press
 46a:	9d 3f       	cpi	r25, 0xFD	; 253
 46c:	31 f5       	brne	.+76     	; 0x4ba <key_press+0xf2>
			if (pressed[key_id]==KEY_PRESSED_FN) { // Fn + AltTab
 46e:	f9 01       	movw	r30, r18
 470:	e8 5b       	subi	r30, 0xB8	; 184
 472:	fd 4f       	sbci	r31, 0xFD	; 253
 474:	80 81       	ld	r24, Z
 476:	81 30       	cpi	r24, 0x01	; 1
 478:	19 f4       	brne	.+6      	; 0x480 <key_press+0xb8>
				usb_keyboard_press(KEY_TAB, KEY_ALT);
 47a:	8b e2       	ldi	r24, 0x2B	; 43
 47c:	64 e0       	ldi	r22, 0x04	; 4
 47e:	69 c0       	rjmp	.+210    	; 0x552 <key_press+0x18a>
			} else { // Alt press, Tab press and release
				if (! (mod_keys & (KEY_ALT|KEY_RIGHT_ALT|KEY_CTRL|KEY_RIGHT_CTRL|KEY_GUI|KEY_RIGHT_GUI))) {
 480:	80 91 31 02 	lds	r24, 0x0231
 484:	98 2f       	mov	r25, r24
 486:	9d 7d       	andi	r25, 0xDD	; 221
 488:	21 f4       	brne	.+8      	; 0x492 <key_press+0xca>
					mod_keys |= (KEY_ALT);
 48a:	84 60       	ori	r24, 0x04	; 4
 48c:	80 93 31 02 	sts	0x0231, r24
 490:	02 c0       	rjmp	.+4      	; 0x496 <key_press+0xce>
				} else {
					pressed[key_id] = KEY_PRESSED_ALT;
 492:	83 e0       	ldi	r24, 0x03	; 3
 494:	80 83       	st	Z, r24
				}
				keyboard_modifier_keys = mod_keys;
 496:	80 91 31 02 	lds	r24, 0x0231
 49a:	80 93 3d 02 	sts	0x023D, r24
				keyboard_keys[0] = KEY_TAB;
 49e:	8b e2       	ldi	r24, 0x2B	; 43
 4a0:	80 93 3e 02 	sts	0x023E, r24
				usb_keyboard_send();
 4a4:	21 d2       	rcall	.+1090   	; 0x8e8 <usb_keyboard_send>
 4a6:	8f ef       	ldi	r24, 0xFF	; 255
 4a8:	90 e7       	ldi	r25, 0x70	; 112
 4aa:	a2 e0       	ldi	r26, 0x02	; 2
 4ac:	81 50       	subi	r24, 0x01	; 1
 4ae:	90 40       	sbci	r25, 0x00	; 0
 4b0:	a0 40       	sbci	r26, 0x00	; 0
 4b2:	e1 f7       	brne	.-8      	; 0x4ac <key_press+0xe4>
 4b4:	00 c0       	rjmp	.+0      	; 0x4b6 <key_press+0xee>
 4b6:	00 00       	nop
 4b8:	ce c0       	rjmp	.+412    	; 0x656 <key_press+0x28e>
				_delay_ms(50);
				send();
			}
		} else if (key_code==KEY_FN_LOCK) { // FnLock
 4ba:	9e 3f       	cpi	r25, 0xFE	; 254
 4bc:	41 f5       	brne	.+80     	; 0x50e <key_press+0x146>
			if (prev_layer) { // FnLock Off
 4be:	80 91 32 02 	lds	r24, 0x0232
 4c2:	90 91 33 02 	lds	r25, 0x0233
 4c6:	00 97       	sbiw	r24, 0x00	; 0
 4c8:	49 f0       	breq	.+18     	; 0x4dc <key_press+0x114>
				layout = prev_layer;
 4ca:	90 93 3d 01 	sts	0x013D, r25
 4ce:	80 93 3c 01 	sts	0x013C, r24
				prev_layer = 0;
 4d2:	10 92 33 02 	sts	0x0233, r1
 4d6:	10 92 32 02 	sts	0x0232, r1
 4da:	0e c0       	rjmp	.+28     	; 0x4f8 <key_press+0x130>
			} else { // FnLock On
				prev_layer = layout;
 4dc:	80 91 3c 01 	lds	r24, 0x013C
 4e0:	90 91 3d 01 	lds	r25, 0x013D
 4e4:	90 93 33 02 	sts	0x0233, r25
 4e8:	80 93 32 02 	sts	0x0232, r24
				layout = layer_fnlock;
 4ec:	86 eb       	ldi	r24, 0xB6	; 182
 4ee:	91 e0       	ldi	r25, 0x01	; 1
 4f0:	90 93 3d 01 	sts	0x013D, r25
 4f4:	80 93 3c 01 	sts	0x013C, r24
			}
			if (prev_layer || mac_mode) {
 4f8:	80 91 32 02 	lds	r24, 0x0232
 4fc:	90 91 33 02 	lds	r25, 0x0233
 500:	00 97       	sbiw	r24, 0x00	; 0
 502:	01 f5       	brne	.+64     	; 0x544 <key_press+0x17c>
 504:	80 91 30 02 	lds	r24, 0x0230
 508:	88 23       	and	r24, r24
 50a:	f1 f0       	breq	.+60     	; 0x548 <key_press+0x180>
 50c:	1b c0       	rjmp	.+54     	; 0x544 <key_press+0x17c>
				LED_ON;
			} else {
				LED_OFF;
			}
		} else if (key_code==KEY_MAC_MODE) { // Mac mode
 50e:	9c 3f       	cpi	r25, 0xFC	; 252
 510:	11 f5       	brne	.+68     	; 0x556 <key_press+0x18e>
			if (pressed[key_id]==KEY_PRESSED_FN && (mod_keys & (KEY_SHIFT|KEY_RIGHT_SHIFT))) {
 512:	28 5b       	subi	r18, 0xB8	; 184
 514:	3d 4f       	sbci	r19, 0xFD	; 253
 516:	d9 01       	movw	r26, r18
 518:	8c 91       	ld	r24, X
 51a:	81 30       	cpi	r24, 0x01	; 1
 51c:	b9 f4       	brne	.+46     	; 0x54c <key_press+0x184>
 51e:	80 91 31 02 	lds	r24, 0x0231
 522:	82 72       	andi	r24, 0x22	; 34
 524:	99 f0       	breq	.+38     	; 0x54c <key_press+0x184>
				mac_mode = ! mac_mode;
 526:	81 e0       	ldi	r24, 0x01	; 1
 528:	90 91 30 02 	lds	r25, 0x0230
 52c:	91 11       	cpse	r25, r1
 52e:	80 e0       	ldi	r24, 0x00	; 0
 530:	80 93 30 02 	sts	0x0230, r24
				if (mac_mode || prev_layer) {
 534:	88 23       	and	r24, r24
 536:	31 f4       	brne	.+12     	; 0x544 <key_press+0x17c>
 538:	80 91 32 02 	lds	r24, 0x0232
 53c:	90 91 33 02 	lds	r25, 0x0233
 540:	00 97       	sbiw	r24, 0x00	; 0
 542:	11 f0       	breq	.+4      	; 0x548 <key_press+0x180>
					LED_ON;
 544:	5c 9a       	sbi	0x0b, 4	; 11
 546:	a4 c0       	rjmp	.+328    	; 0x690 <key_press+0x2c8>
				} else {
					LED_OFF;
 548:	5c 98       	cbi	0x0b, 4	; 11
 54a:	a2 c0       	rjmp	.+324    	; 0x690 <key_press+0x2c8>
				}
			} else { // TODO: Exclusion, press Space
				usb_keyboard_press(KEY_SPACE, mod_keys);
 54c:	8c e2       	ldi	r24, 0x2C	; 44
 54e:	60 91 31 02 	lds	r22, 0x0231
 552:	04 d2       	rcall	.+1032   	; 0x95c <usb_keyboard_press>
 554:	9d c0       	rjmp	.+314    	; 0x690 <key_press+0x2c8>
			}
		} else if ((key_code==KEY_LAYER1 || key_code==KEY_LAYER2) && (mod_keys & (KEY_ALT|KEY_RIGHT_ALT|KEY_CTRL|KEY_RIGHT_CTRL|KEY_GUI|KEY_RIGHT_GUI))) { // Mods + Layer = Shift
 556:	89 2f       	mov	r24, r25
 558:	81 5f       	subi	r24, 0xF1	; 241
 55a:	82 30       	cpi	r24, 0x02	; 2
 55c:	c8 f5       	brcc	.+114    	; 0x5d0 <key_press+0x208>
 55e:	80 91 31 02 	lds	r24, 0x0231
 562:	48 2f       	mov	r20, r24
 564:	4d 7d       	andi	r20, 0xDD	; 221
 566:	39 f0       	breq	.+14     	; 0x576 <key_press+0x1ae>
			pressed[key_id] = KEY_PRESSED_SHIFT;
 568:	28 5b       	subi	r18, 0xB8	; 184
 56a:	3d 4f       	sbci	r19, 0xFD	; 253
 56c:	94 e0       	ldi	r25, 0x04	; 4
 56e:	f9 01       	movw	r30, r18
 570:	90 83       	st	Z, r25
			mod_keys |= KEY_SHIFT;
 572:	82 60       	ori	r24, 0x02	; 2
 574:	6e c0       	rjmp	.+220    	; 0x652 <key_press+0x28a>
			send();
		} else if (key_code==KEY_LAYER1) { // KEY_LAYOUT1
 576:	91 3f       	cpi	r25, 0xF1	; 241
 578:	79 f4       	brne	.+30     	; 0x598 <key_press+0x1d0>
			if (layout!=layer1) {
 57a:	20 91 3c 01 	lds	r18, 0x013C
 57e:	30 91 3d 01 	lds	r19, 0x013D
 582:	8e e3       	ldi	r24, 0x3E	; 62
 584:	91 e0       	ldi	r25, 0x01	; 1
 586:	28 17       	cp	r18, r24
 588:	39 07       	cpc	r19, r25
 58a:	09 f4       	brne	.+2      	; 0x58e <key_press+0x1c6>
 58c:	81 c0       	rjmp	.+258    	; 0x690 <key_press+0x2c8>
				if (layout==layer_fn) {
 58e:	41 e0       	ldi	r20, 0x01	; 1
 590:	2a 37       	cpi	r18, 0x7A	; 122
 592:	34 07       	cpc	r19, r20
 594:	b9 f4       	brne	.+46     	; 0x5c4 <key_press+0x1fc>
 596:	11 c0       	rjmp	.+34     	; 0x5ba <key_press+0x1f2>
				} else {
					layout = layer1;
				}
				change_layout();
			}
		} else if (key_code==KEY_LAYER2) { // KEY_LAYOUT2
 598:	92 3f       	cpi	r25, 0xF2	; 242
 59a:	d1 f4       	brne	.+52     	; 0x5d0 <key_press+0x208>
			if (layout!=layer2) {
 59c:	20 91 3c 01 	lds	r18, 0x013C
 5a0:	30 91 3d 01 	lds	r19, 0x013D
 5a4:	81 e0       	ldi	r24, 0x01	; 1
 5a6:	20 30       	cpi	r18, 0x00	; 0
 5a8:	38 07       	cpc	r19, r24
 5aa:	09 f4       	brne	.+2      	; 0x5ae <key_press+0x1e6>
 5ac:	71 c0       	rjmp	.+226    	; 0x690 <key_press+0x2c8>
 5ae:	80 e0       	ldi	r24, 0x00	; 0
 5b0:	91 e0       	ldi	r25, 0x01	; 1
				if (layout==layer_fn) {
 5b2:	a1 e0       	ldi	r26, 0x01	; 1
 5b4:	2a 37       	cpi	r18, 0x7A	; 122
 5b6:	3a 07       	cpc	r19, r26
 5b8:	29 f4       	brne	.+10     	; 0x5c4 <key_press+0x1fc>
					prev_layer = layer2;
 5ba:	90 93 33 02 	sts	0x0233, r25
 5be:	80 93 32 02 	sts	0x0232, r24
 5c2:	04 c0       	rjmp	.+8      	; 0x5cc <key_press+0x204>
				} else {
					layout = layer2;	
 5c4:	90 93 3d 01 	sts	0x013D, r25
 5c8:	80 93 3c 01 	sts	0x013C, r24
				}
				change_layout();
 5cc:	d8 dd       	rcall	.-1104   	; 0x17e <change_layout>
 5ce:	60 c0       	rjmp	.+192    	; 0x690 <key_press+0x2c8>
			}
		} else if (key_code==KEY_TURBO_REPEAT) {
 5d0:	9b 3f       	cpi	r25, 0xFB	; 251
 5d2:	09 f0       	breq	.+2      	; 0x5d6 <key_press+0x20e>
 5d4:	5d c0       	rjmp	.+186    	; 0x690 <key_press+0x2c8>
			turbo_repeat = ! turbo_repeat;
 5d6:	81 e0       	ldi	r24, 0x01	; 1
 5d8:	90 91 2c 02 	lds	r25, 0x022C
 5dc:	91 11       	cpse	r25, r1
 5de:	80 e0       	ldi	r24, 0x00	; 0
 5e0:	80 93 2c 02 	sts	0x022C, r24
 5e4:	55 c0       	rjmp	.+170    	; 0x690 <key_press+0x2c8>
		}
	} else if (key_code>=0x80) { // Mod keys
 5e6:	97 fd       	sbrc	r25, 7
 5e8:	1e c0       	rjmp	.+60     	; 0x626 <key_press+0x25e>
		} else {
			mod_keys |= (key_code & 0x7F);
		}
		send();
	} else {
		for (i=5; i>0; i--) queue[i] = queue[i-1];
 5ea:	90 91 29 02 	lds	r25, 0x0229
 5ee:	90 93 2a 02 	sts	0x022A, r25
 5f2:	90 91 28 02 	lds	r25, 0x0228
 5f6:	90 93 29 02 	sts	0x0229, r25
 5fa:	90 91 27 02 	lds	r25, 0x0227
 5fe:	90 93 28 02 	sts	0x0228, r25
 602:	90 91 26 02 	lds	r25, 0x0226
 606:	90 93 27 02 	sts	0x0227, r25
 60a:	90 91 25 02 	lds	r25, 0x0225
 60e:	90 93 26 02 	sts	0x0226, r25
		queue[0] = key_id;
 612:	80 93 25 02 	sts	0x0225, r24
		send();
 616:	89 83       	std	Y+1, r24	; 0x01
 618:	28 de       	rcall	.-944    	; 0x26a <send>
		// Autorepeat
		if (last_key==key_id) { // calc press2
 61a:	90 91 34 02 	lds	r25, 0x0234
 61e:	89 81       	ldd	r24, Y+1	; 0x01
 620:	98 17       	cp	r25, r24
 622:	11 f5       	brne	.+68     	; 0x668 <key_press+0x2a0>
 624:	1a c0       	rjmp	.+52     	; 0x65a <key_press+0x292>
			}
		} else if (key_code==KEY_TURBO_REPEAT) {
			turbo_repeat = ! turbo_repeat;
		}
	} else if (key_code>=0x80) { // Mod keys
		if (mac_mode && key_code==(KEY_CTRL|KEY_MOD)) {
 626:	80 91 30 02 	lds	r24, 0x0230
 62a:	88 23       	and	r24, r24
 62c:	41 f0       	breq	.+16     	; 0x63e <key_press+0x276>
 62e:	91 38       	cpi	r25, 0x81	; 129
 630:	21 f4       	brne	.+8      	; 0x63a <key_press+0x272>
			mod_keys |= KEY_GUI;
 632:	80 91 31 02 	lds	r24, 0x0231
 636:	88 60       	ori	r24, 0x08	; 8
 638:	0c c0       	rjmp	.+24     	; 0x652 <key_press+0x28a>
		} else if ((mac_mode && key_code==(KEY_RIGHT_CTRL|KEY_MOD)) || key_code==(KEY_RIGHT_GUI|KEY_MOD)) {
 63a:	90 39       	cpi	r25, 0x90	; 144
 63c:	11 f0       	breq	.+4      	; 0x642 <key_press+0x27a>
 63e:	90 38       	cpi	r25, 0x80	; 128
 640:	21 f4       	brne	.+8      	; 0x64a <key_press+0x282>
			mod_keys |= KEY_RIGHT_GUI;
 642:	80 91 31 02 	lds	r24, 0x0231
 646:	80 68       	ori	r24, 0x80	; 128
 648:	04 c0       	rjmp	.+8      	; 0x652 <key_press+0x28a>
		} else {
			mod_keys |= (key_code & 0x7F);
 64a:	9f 77       	andi	r25, 0x7F	; 127
 64c:	80 91 31 02 	lds	r24, 0x0231
 650:	89 2b       	or	r24, r25
 652:	80 93 31 02 	sts	0x0231, r24
		}
		send();
 656:	09 de       	rcall	.-1006   	; 0x26a <send>
 658:	1b c0       	rjmp	.+54     	; 0x690 <key_press+0x2c8>
		for (i=5; i>0; i--) queue[i] = queue[i-1];
		queue[0] = key_id;
		send();
		// Autorepeat
		if (last_key==key_id) { // calc press2
			press_time2 = 1;
 65a:	81 e0       	ldi	r24, 0x01	; 1
 65c:	90 e0       	ldi	r25, 0x00	; 0
 65e:	90 93 38 02 	sts	0x0238, r25
 662:	80 93 37 02 	sts	0x0237, r24
 666:	10 c0       	rjmp	.+32     	; 0x688 <key_press+0x2c0>
			repeat_time = 0;
		} else { // calc press1
			last_key = key_id;
 668:	80 93 34 02 	sts	0x0234, r24
			press_time = 1;
 66c:	81 e0       	ldi	r24, 0x01	; 1
 66e:	90 e0       	ldi	r25, 0x00	; 0
 670:	90 93 36 02 	sts	0x0236, r25
 674:	80 93 35 02 	sts	0x0235, r24
			press_time2 = 0;
 678:	10 92 38 02 	sts	0x0238, r1
 67c:	10 92 37 02 	sts	0x0237, r1
			release_time = 0;
 680:	10 92 3a 02 	sts	0x023A, r1
 684:	10 92 39 02 	sts	0x0239, r1
			repeat_time = 0;
 688:	10 92 3c 02 	sts	0x023C, r1
 68c:	10 92 3b 02 	sts	0x023B, r1
		}
	}
}
 690:	0f 90       	pop	r0
 692:	cf 91       	pop	r28
 694:	df 91       	pop	r29
 696:	08 95       	ret

00000698 <repeat_tick>:
	if (turbo_repeat) repeat_tick();
	_delay_ms(5);
}

void repeat_tick(void) {
	if (repeat_time) { // repeat pause
 698:	80 91 3b 02 	lds	r24, 0x023B
 69c:	90 91 3c 02 	lds	r25, 0x023C
 6a0:	00 97       	sbiw	r24, 0x00	; 0
 6a2:	19 f1       	breq	.+70     	; 0x6ea <repeat_tick+0x52>
		if (repeat_time<(release_time>>2)) {
 6a4:	20 91 39 02 	lds	r18, 0x0239
 6a8:	30 91 3a 02 	lds	r19, 0x023A
 6ac:	36 95       	lsr	r19
 6ae:	27 95       	ror	r18
 6b0:	36 95       	lsr	r19
 6b2:	27 95       	ror	r18
 6b4:	82 17       	cp	r24, r18
 6b6:	93 07       	cpc	r25, r19
 6b8:	10 f4       	brcc	.+4      	; 0x6be <repeat_tick+0x26>
			repeat_time++;
 6ba:	01 96       	adiw	r24, 0x01	; 1
 6bc:	36 c0       	rjmp	.+108    	; 0x72a <repeat_tick+0x92>
		} else { // repeat press
			repeat_time = 1;
 6be:	81 e0       	ldi	r24, 0x01	; 1
 6c0:	90 e0       	ldi	r25, 0x00	; 0
 6c2:	90 93 3c 02 	sts	0x023C, r25
 6c6:	80 93 3b 02 	sts	0x023B, r24

			keyboard_modifier_keys = mod_keys;
 6ca:	80 91 31 02 	lds	r24, 0x0231
 6ce:	80 93 3d 02 	sts	0x023D, r24
			keyboard_keys[0] = get_code(last_key);
 6d2:	80 91 34 02 	lds	r24, 0x0234
 6d6:	a2 dd       	rcall	.-1212   	; 0x21c <get_code>
 6d8:	80 93 3e 02 	sts	0x023E, r24
			if (! usb_keyboard_send()) { // repeat release
 6dc:	05 d1       	rcall	.+522    	; 0x8e8 <usb_keyboard_send>
 6de:	88 23       	and	r24, r24
 6e0:	09 f0       	breq	.+2      	; 0x6e4 <repeat_tick+0x4c>
 6e2:	5c c0       	rjmp	.+184    	; 0x79c <repeat_tick+0x104>
				keyboard_keys[0] = 0;
 6e4:	10 92 3e 02 	sts	0x023E, r1
				usb_keyboard_send();
 6e8:	ff c0       	rjmp	.+510    	; 0x8e8 <usb_keyboard_send>
			}
		}
	} else if (press_time2) { // press2 pause
 6ea:	80 91 37 02 	lds	r24, 0x0237
 6ee:	90 91 38 02 	lds	r25, 0x0238
 6f2:	00 97       	sbiw	r24, 0x00	; 0
 6f4:	f9 f0       	breq	.+62     	; 0x734 <repeat_tick+0x9c>
		if (press_time2<(press_time+(pressed[FN_KEY_ID] ? 5 : 30))) {
 6f6:	40 91 35 02 	lds	r20, 0x0235
 6fa:	50 91 36 02 	lds	r21, 0x0236
 6fe:	20 91 6b 02 	lds	r18, 0x026B
 702:	22 23       	and	r18, r18
 704:	19 f0       	breq	.+6      	; 0x70c <repeat_tick+0x74>
 706:	25 e0       	ldi	r18, 0x05	; 5
 708:	30 e0       	ldi	r19, 0x00	; 0
 70a:	02 c0       	rjmp	.+4      	; 0x710 <repeat_tick+0x78>
 70c:	2e e1       	ldi	r18, 0x1E	; 30
 70e:	30 e0       	ldi	r19, 0x00	; 0
 710:	24 0f       	add	r18, r20
 712:	35 1f       	adc	r19, r21
 714:	82 17       	cp	r24, r18
 716:	93 07       	cpc	r25, r19
 718:	30 f4       	brcc	.+12     	; 0x726 <repeat_tick+0x8e>
			press_time2++;
 71a:	01 96       	adiw	r24, 0x01	; 1
 71c:	90 93 38 02 	sts	0x0238, r25
 720:	80 93 37 02 	sts	0x0237, r24
 724:	08 95       	ret
		} else {
			repeat_time = 1;
 726:	81 e0       	ldi	r24, 0x01	; 1
 728:	90 e0       	ldi	r25, 0x00	; 0
 72a:	90 93 3c 02 	sts	0x023C, r25
 72e:	80 93 3b 02 	sts	0x023B, r24
 732:	08 95       	ret
		}
	} else if (release_time) { // release pause
 734:	20 91 39 02 	lds	r18, 0x0239
 738:	30 91 3a 02 	lds	r19, 0x023A
 73c:	80 91 35 02 	lds	r24, 0x0235
 740:	90 91 36 02 	lds	r25, 0x0236
 744:	21 15       	cp	r18, r1
 746:	31 05       	cpc	r19, r1
 748:	d1 f0       	breq	.+52     	; 0x77e <repeat_tick+0xe6>
		if (release_time<(press_time+50)) {
 74a:	c2 96       	adiw	r24, 0x32	; 50
 74c:	28 17       	cp	r18, r24
 74e:	39 07       	cpc	r19, r25
 750:	38 f4       	brcc	.+14     	; 0x760 <repeat_tick+0xc8>
			release_time++;
 752:	2f 5f       	subi	r18, 0xFF	; 255
 754:	3f 4f       	sbci	r19, 0xFF	; 255
 756:	30 93 3a 02 	sts	0x023A, r19
 75a:	20 93 39 02 	sts	0x0239, r18
 75e:	08 95       	ret
		} else {
			last_key = 0;
 760:	10 92 34 02 	sts	0x0234, r1
			release_time = 0;
 764:	10 92 3a 02 	sts	0x023A, r1
 768:	10 92 39 02 	sts	0x0239, r1
			press_time = 0;
 76c:	10 92 36 02 	sts	0x0236, r1
 770:	10 92 35 02 	sts	0x0235, r1
			press_time2 = 0;
 774:	10 92 38 02 	sts	0x0238, r1
 778:	10 92 37 02 	sts	0x0237, r1
 77c:	08 95       	ret
			release_time = 0;
		}
	} else if (press_time) { // press1 pause
 77e:	00 97       	sbiw	r24, 0x00	; 0
 780:	69 f0       	breq	.+26     	; 0x79c <repeat_tick+0x104>
		if (press_time<250) {
 782:	8a 3f       	cpi	r24, 0xFA	; 250
 784:	91 05       	cpc	r25, r1
 786:	30 f4       	brcc	.+12     	; 0x794 <repeat_tick+0xfc>
			press_time++;
 788:	01 96       	adiw	r24, 0x01	; 1
 78a:	90 93 36 02 	sts	0x0236, r25
 78e:	80 93 35 02 	sts	0x0235, r24
 792:	08 95       	ret
		} else {
			press_time = 0;
 794:	10 92 36 02 	sts	0x0236, r1
 798:	10 92 35 02 	sts	0x0235, r1
 79c:	08 95       	ret

0000079e <poll>:
	LED_ON;
	_delay_ms(1000);
	LED_OFF;
}

void poll() {
 79e:	8f 92       	push	r8
 7a0:	9f 92       	push	r9
 7a2:	af 92       	push	r10
 7a4:	bf 92       	push	r11
 7a6:	cf 92       	push	r12
 7a8:	df 92       	push	r13
 7aa:	ef 92       	push	r14
 7ac:	ff 92       	push	r15
 7ae:	0f 93       	push	r16
 7b0:	1f 93       	push	r17
 7b2:	cf 93       	push	r28
 7b4:	df 93       	push	r29
 7b6:	02 ef       	ldi	r16, 0xF2	; 242
 7b8:	11 e0       	ldi	r17, 0x01	; 1
 7ba:	cc ef       	ldi	r28, 0xFC	; 252
 7bc:	d1 e0       	ldi	r29, 0x01	; 1
	uint8_t row, col, key_id;
	for (row=0; row<ROWS; row++) { // scan rows
 7be:	99 24       	eor	r9, r9
		*row_port[row] &= ~row_bit[row];
 7c0:	d8 01       	movw	r26, r16
 7c2:	ed 91       	ld	r30, X+
 7c4:	fc 91       	ld	r31, X
	LED_ON;
	_delay_ms(1000);
	LED_OFF;
}

void poll() {
 7c6:	5e 01       	movw	r10, r28
	uint8_t row, col, key_id;
	for (row=0; row<ROWS; row++) { // scan rows
		*row_port[row] &= ~row_bit[row];
 7c8:	98 81       	ld	r25, Y
 7ca:	90 95       	com	r25
 7cc:	80 81       	ld	r24, Z
 7ce:	89 23       	and	r24, r25
 7d0:	80 83       	st	Z, r24
	#else
		//round up by default
		__ticks_dc = (uint32_t)(ceil(fabs(__tmp)));
	#endif

	__builtin_avr_delay_cycles(__ticks_dc);
 7d2:	b5 e0       	ldi	r27, 0x05	; 5
 7d4:	ba 95       	dec	r27
 7d6:	f1 f7       	brne	.-4      	; 0x7d4 <poll+0x36>
 7d8:	00 00       	nop
 7da:	61 e0       	ldi	r22, 0x01	; 1
 7dc:	e6 2e       	mov	r14, r22
 7de:	62 e0       	ldi	r22, 0x02	; 2
 7e0:	f6 2e       	mov	r15, r22
 7e2:	59 e1       	ldi	r21, 0x19	; 25
 7e4:	c5 2e       	mov	r12, r21
 7e6:	52 e0       	ldi	r21, 0x02	; 2
 7e8:	d5 2e       	mov	r13, r21
	LED_ON;
	_delay_ms(1000);
	LED_OFF;
}

void poll() {
 7ea:	89 2c       	mov	r8, r9
	for (row=0; row<ROWS; row++) { // scan rows
		*row_port[row] &= ~row_bit[row];
		_delay_us(1);
		for (col=0; col<COLS; col++) { // read columns
			key_id = col*ROWS+row;
			if (! (*col_pin[col] & col_bit[col])) { // press key
 7ec:	d7 01       	movw	r26, r14
 7ee:	ed 91       	ld	r30, X+
 7f0:	fd 91       	ld	r31, X+
 7f2:	7d 01       	movw	r14, r26
 7f4:	d6 01       	movw	r26, r12
 7f6:	8d 91       	ld	r24, X+
 7f8:	6d 01       	movw	r12, r26
 7fa:	90 81       	ld	r25, Z
 7fc:	89 23       	and	r24, r25
 7fe:	28 2d       	mov	r18, r8
 800:	30 e0       	ldi	r19, 0x00	; 0
 802:	49 f4       	brne	.+18     	; 0x816 <poll+0x78>
				if (! pressed[key_id]) {
 804:	28 5b       	subi	r18, 0xB8	; 184
 806:	3d 4f       	sbci	r19, 0xFD	; 253
 808:	f9 01       	movw	r30, r18
 80a:	80 81       	ld	r24, Z
 80c:	88 23       	and	r24, r24
 80e:	59 f4       	brne	.+22     	; 0x826 <poll+0x88>
					key_press(key_id);
 810:	88 2d       	mov	r24, r8
 812:	da dd       	rcall	.-1100   	; 0x3c8 <key_press>
 814:	08 c0       	rjmp	.+16     	; 0x826 <poll+0x88>
				}
			} else if (pressed[key_id]) { // release key
 816:	28 5b       	subi	r18, 0xB8	; 184
 818:	3d 4f       	sbci	r19, 0xFD	; 253
 81a:	d9 01       	movw	r26, r18
 81c:	8c 91       	ld	r24, X
 81e:	88 23       	and	r24, r24
 820:	11 f0       	breq	.+4      	; 0x826 <poll+0x88>
				key_release(key_id);
 822:	88 2d       	mov	r24, r8
 824:	3d dd       	rcall	.-1414   	; 0x2a0 <key_release>
 826:	b5 e0       	ldi	r27, 0x05	; 5
 828:	8b 0e       	add	r8, r27
void poll() {
	uint8_t row, col, key_id;
	for (row=0; row<ROWS; row++) { // scan rows
		*row_port[row] &= ~row_bit[row];
		_delay_us(1);
		for (col=0; col<COLS; col++) { // read columns
 82a:	e9 e1       	ldi	r30, 0x19	; 25
 82c:	ee 16       	cp	r14, r30
 82e:	e2 e0       	ldi	r30, 0x02	; 2
 830:	fe 06       	cpc	r15, r30
 832:	e1 f6       	brne	.-72     	; 0x7ec <poll+0x4e>
				}
			} else if (pressed[key_id]) { // release key
				key_release(key_id);
			}
		}
		*row_port[row] |= row_bit[row];
 834:	d8 01       	movw	r26, r16
 836:	ed 91       	ld	r30, X+
 838:	fd 91       	ld	r31, X+
 83a:	8d 01       	movw	r16, r26
 83c:	21 96       	adiw	r28, 0x01	; 1
 83e:	80 81       	ld	r24, Z
 840:	d5 01       	movw	r26, r10
 842:	9c 91       	ld	r25, X
 844:	89 2b       	or	r24, r25
 846:	80 83       	st	Z, r24
	LED_OFF;
}

void poll() {
	uint8_t row, col, key_id;
	for (row=0; row<ROWS; row++) { // scan rows
 848:	93 94       	inc	r9
 84a:	b9 2d       	mov	r27, r9
 84c:	b5 30       	cpi	r27, 0x05	; 5
 84e:	09 f0       	breq	.+2      	; 0x852 <poll+0xb4>
 850:	b7 cf       	rjmp	.-146    	; 0x7c0 <poll+0x22>
			}
		}
		*row_port[row] |= row_bit[row];
	}
	//if (layout!=layer_fnlock || pressed[FN_KEY_ID]) repeat_tick();
	if (turbo_repeat) repeat_tick();
 852:	80 91 2c 02 	lds	r24, 0x022C
 856:	88 23       	and	r24, r24
 858:	09 f0       	breq	.+2      	; 0x85c <poll+0xbe>
 85a:	1e df       	rcall	.-452    	; 0x698 <repeat_tick>
	#else
		//round up by default
		__ticks_dc = (uint32_t)(ceil(fabs(__tmp)));
	#endif

	__builtin_avr_delay_cycles(__ticks_dc);
 85c:	ef e1       	ldi	r30, 0x1F	; 31
 85e:	fe e4       	ldi	r31, 0x4E	; 78
 860:	31 97       	sbiw	r30, 0x01	; 1
 862:	f1 f7       	brne	.-4      	; 0x860 <poll+0xc2>
 864:	00 c0       	rjmp	.+0      	; 0x866 <poll+0xc8>
 866:	00 00       	nop
	_delay_ms(5);
}
 868:	df 91       	pop	r29
 86a:	cf 91       	pop	r28
 86c:	1f 91       	pop	r17
 86e:	0f 91       	pop	r16
 870:	ff 90       	pop	r15
 872:	ef 90       	pop	r14
 874:	df 90       	pop	r13
 876:	cf 90       	pop	r12
 878:	bf 90       	pop	r11
 87a:	af 90       	pop	r10
 87c:	9f 90       	pop	r9
 87e:	8f 90       	pop	r8
 880:	08 95       	ret

00000882 <main>:
void key_release(uint8_t key_id);
uint8_t get_code(uint8_t key_id);

int main(void) {
	// Disable watchdog if enabled by bootloader/fuses
	MCUSR &= ~(1 << WDRF);
 882:	84 b7       	in	r24, 0x34	; 52
 884:	87 7f       	andi	r24, 0xF7	; 247
 886:	84 bf       	out	0x34, r24	; 52
	wdt_disable();
 888:	88 e1       	ldi	r24, 0x18	; 24
 88a:	0f b6       	in	r0, 0x3f	; 63
 88c:	f8 94       	cli
 88e:	80 93 60 00 	sts	0x0060, r24
 892:	10 92 60 00 	sts	0x0060, r1
 896:	0f be       	out	0x3f, r0	; 63
The type of x is clock_div_t.
*/
void clock_prescale_set(clock_div_t __x)
{
    uint8_t __tmp = _BV(CLKPCE);
    __asm__ __volatile__ (
 898:	90 e0       	ldi	r25, 0x00	; 0
 89a:	80 e8       	ldi	r24, 0x80	; 128
 89c:	0f b6       	in	r0, 0x3f	; 63
 89e:	f8 94       	cli
 8a0:	80 93 61 00 	sts	0x0061, r24
 8a4:	90 93 61 00 	sts	0x0061, r25
 8a8:	0f be       	out	0x3f, r0	; 63

	// Disable clock division
	clock_prescale_set(clock_div_1);

	init();
 8aa:	91 dc       	rcall	.-1758   	; 0x1ce <init>
	for (;;) {
		poll();
 8ac:	78 df       	rcall	.-272    	; 0x79e <poll>
 8ae:	fe cf       	rjmp	.-4      	; 0x8ac <main+0x2a>

000008b0 <usb_wait_in_ready>:
 8b0:	80 91 e8 00 	lds	r24, 0x00E8
 8b4:	80 ff       	sbrs	r24, 0
 8b6:	fc cf       	rjmp	.-8      	; 0x8b0 <usb_wait_in_ready>
 8b8:	08 95       	ret

000008ba <usb_init>:
 8ba:	80 ea       	ldi	r24, 0xA0	; 160
 8bc:	80 93 d8 00 	sts	0x00D8, r24
 8c0:	86 e0       	ldi	r24, 0x06	; 6
 8c2:	89 bd       	out	0x29, r24	; 41
 8c4:	09 b4       	in	r0, 0x29	; 41
 8c6:	00 fe       	sbrs	r0, 0
 8c8:	fd cf       	rjmp	.-6      	; 0x8c4 <usb_init+0xa>
 8ca:	80 e8       	ldi	r24, 0x80	; 128
 8cc:	80 93 d8 00 	sts	0x00D8, r24
 8d0:	10 92 e0 00 	sts	0x00E0, r1
 8d4:	10 92 45 02 	sts	0x0245, r1
 8d8:	8c e0       	ldi	r24, 0x0C	; 12
 8da:	80 93 e2 00 	sts	0x00E2, r24
 8de:	78 94       	sei
 8e0:	08 95       	ret

000008e2 <usb_configured>:
 8e2:	80 91 45 02 	lds	r24, 0x0245
 8e6:	08 95       	ret

000008e8 <usb_keyboard_send>:
 8e8:	80 91 45 02 	lds	r24, 0x0245
 8ec:	88 23       	and	r24, r24
 8ee:	91 f1       	breq	.+100    	; 0x954 <usb_keyboard_send+0x6c>
 8f0:	8f b7       	in	r24, 0x3f	; 63
 8f2:	f8 94       	cli
 8f4:	93 e0       	ldi	r25, 0x03	; 3
 8f6:	90 93 e9 00 	sts	0x00E9, r25
 8fa:	90 91 e4 00 	lds	r25, 0x00E4
 8fe:	9e 5c       	subi	r25, 0xCE	; 206
 900:	23 e0       	ldi	r18, 0x03	; 3
 902:	30 91 e8 00 	lds	r19, 0x00E8
 906:	35 fd       	sbrc	r19, 5
 908:	0e c0       	rjmp	.+28     	; 0x926 <usb_keyboard_send+0x3e>
 90a:	8f bf       	out	0x3f, r24	; 63
 90c:	80 91 45 02 	lds	r24, 0x0245
 910:	88 23       	and	r24, r24
 912:	01 f1       	breq	.+64     	; 0x954 <usb_keyboard_send+0x6c>
 914:	80 91 e4 00 	lds	r24, 0x00E4
 918:	89 17       	cp	r24, r25
 91a:	f1 f0       	breq	.+60     	; 0x958 <usb_keyboard_send+0x70>
 91c:	8f b7       	in	r24, 0x3f	; 63
 91e:	f8 94       	cli
 920:	20 93 e9 00 	sts	0x00E9, r18
 924:	ee cf       	rjmp	.-36     	; 0x902 <usb_keyboard_send+0x1a>
 926:	90 91 3d 02 	lds	r25, 0x023D
 92a:	90 93 f1 00 	sts	0x00F1, r25
 92e:	10 92 f1 00 	sts	0x00F1, r1
 932:	ee e3       	ldi	r30, 0x3E	; 62
 934:	f2 e0       	ldi	r31, 0x02	; 2
 936:	91 91       	ld	r25, Z+
 938:	90 93 f1 00 	sts	0x00F1, r25
 93c:	92 e0       	ldi	r25, 0x02	; 2
 93e:	e4 34       	cpi	r30, 0x44	; 68
 940:	f9 07       	cpc	r31, r25
 942:	c9 f7       	brne	.-14     	; 0x936 <usb_keyboard_send+0x4e>
 944:	9a e3       	ldi	r25, 0x3A	; 58
 946:	90 93 e8 00 	sts	0x00E8, r25
 94a:	10 92 46 02 	sts	0x0246, r1
 94e:	8f bf       	out	0x3f, r24	; 63
 950:	80 e0       	ldi	r24, 0x00	; 0
 952:	08 95       	ret
 954:	8f ef       	ldi	r24, 0xFF	; 255
 956:	08 95       	ret
 958:	8f ef       	ldi	r24, 0xFF	; 255
 95a:	08 95       	ret

0000095c <usb_keyboard_press>:
 95c:	60 93 3d 02 	sts	0x023D, r22
 960:	80 93 3e 02 	sts	0x023E, r24
 964:	c1 df       	rcall	.-126    	; 0x8e8 <usb_keyboard_send>
 966:	88 23       	and	r24, r24
 968:	29 f4       	brne	.+10     	; 0x974 <usb_keyboard_press+0x18>
 96a:	10 92 3d 02 	sts	0x023D, r1
 96e:	10 92 3e 02 	sts	0x023E, r1
 972:	ba cf       	rjmp	.-140    	; 0x8e8 <usb_keyboard_send>
 974:	08 95       	ret

00000976 <__vector_11>:
 976:	1f 92       	push	r1
 978:	0f 92       	push	r0
 97a:	0f b6       	in	r0, 0x3f	; 63
 97c:	0f 92       	push	r0
 97e:	11 24       	eor	r1, r1
 980:	2f 93       	push	r18
 982:	8f 93       	push	r24
 984:	9f 93       	push	r25
 986:	ef 93       	push	r30
 988:	ff 93       	push	r31
 98a:	80 91 e1 00 	lds	r24, 0x00E1
 98e:	10 92 e1 00 	sts	0x00E1, r1
 992:	83 ff       	sbrs	r24, 3
 994:	0f c0       	rjmp	.+30     	; 0x9b4 <__vector_11+0x3e>
 996:	10 92 e9 00 	sts	0x00E9, r1
 99a:	91 e0       	ldi	r25, 0x01	; 1
 99c:	90 93 eb 00 	sts	0x00EB, r25
 9a0:	10 92 ec 00 	sts	0x00EC, r1
 9a4:	92 e2       	ldi	r25, 0x22	; 34
 9a6:	90 93 ed 00 	sts	0x00ED, r25
 9aa:	98 e0       	ldi	r25, 0x08	; 8
 9ac:	90 93 f0 00 	sts	0x00F0, r25
 9b0:	10 92 45 02 	sts	0x0245, r1
 9b4:	82 ff       	sbrs	r24, 2
 9b6:	34 c0       	rjmp	.+104    	; 0xa20 <__vector_11+0xaa>
 9b8:	80 91 45 02 	lds	r24, 0x0245
 9bc:	88 23       	and	r24, r24
 9be:	81 f1       	breq	.+96     	; 0xa20 <__vector_11+0xaa>
 9c0:	20 91 2d 02 	lds	r18, 0x022D
 9c4:	22 23       	and	r18, r18
 9c6:	61 f1       	breq	.+88     	; 0xa20 <__vector_11+0xaa>
 9c8:	80 91 47 02 	lds	r24, 0x0247
 9cc:	8f 5f       	subi	r24, 0xFF	; 255
 9ce:	80 93 47 02 	sts	0x0247, r24
 9d2:	90 e0       	ldi	r25, 0x00	; 0
 9d4:	83 70       	andi	r24, 0x03	; 3
 9d6:	90 70       	andi	r25, 0x00	; 0
 9d8:	00 97       	sbiw	r24, 0x00	; 0
 9da:	11 f5       	brne	.+68     	; 0xa20 <__vector_11+0xaa>
 9dc:	83 e0       	ldi	r24, 0x03	; 3
 9de:	80 93 e9 00 	sts	0x00E9, r24
 9e2:	80 91 e8 00 	lds	r24, 0x00E8
 9e6:	85 ff       	sbrs	r24, 5
 9e8:	1b c0       	rjmp	.+54     	; 0xa20 <__vector_11+0xaa>
 9ea:	80 91 46 02 	lds	r24, 0x0246
 9ee:	8f 5f       	subi	r24, 0xFF	; 255
 9f0:	80 93 46 02 	sts	0x0246, r24
 9f4:	82 17       	cp	r24, r18
 9f6:	a1 f4       	brne	.+40     	; 0xa20 <__vector_11+0xaa>
 9f8:	10 92 46 02 	sts	0x0246, r1
 9fc:	80 91 3d 02 	lds	r24, 0x023D
 a00:	80 93 f1 00 	sts	0x00F1, r24
 a04:	10 92 f1 00 	sts	0x00F1, r1
 a08:	ee e3       	ldi	r30, 0x3E	; 62
 a0a:	f2 e0       	ldi	r31, 0x02	; 2
 a0c:	81 91       	ld	r24, Z+
 a0e:	80 93 f1 00 	sts	0x00F1, r24
 a12:	82 e0       	ldi	r24, 0x02	; 2
 a14:	e4 34       	cpi	r30, 0x44	; 68
 a16:	f8 07       	cpc	r31, r24
 a18:	c9 f7       	brne	.-14     	; 0xa0c <__vector_11+0x96>
 a1a:	8a e3       	ldi	r24, 0x3A	; 58
 a1c:	80 93 e8 00 	sts	0x00E8, r24
 a20:	ff 91       	pop	r31
 a22:	ef 91       	pop	r30
 a24:	9f 91       	pop	r25
 a26:	8f 91       	pop	r24
 a28:	2f 91       	pop	r18
 a2a:	0f 90       	pop	r0
 a2c:	0f be       	out	0x3f, r0	; 63
 a2e:	0f 90       	pop	r0
 a30:	1f 90       	pop	r1
 a32:	18 95       	reti

00000a34 <__vector_12>:
 a34:	1f 92       	push	r1
 a36:	0f 92       	push	r0
 a38:	0f b6       	in	r0, 0x3f	; 63
 a3a:	0f 92       	push	r0
 a3c:	11 24       	eor	r1, r1
 a3e:	cf 92       	push	r12
 a40:	df 92       	push	r13
 a42:	ef 92       	push	r14
 a44:	ff 92       	push	r15
 a46:	0f 93       	push	r16
 a48:	1f 93       	push	r17
 a4a:	2f 93       	push	r18
 a4c:	3f 93       	push	r19
 a4e:	4f 93       	push	r20
 a50:	5f 93       	push	r21
 a52:	6f 93       	push	r22
 a54:	7f 93       	push	r23
 a56:	8f 93       	push	r24
 a58:	9f 93       	push	r25
 a5a:	af 93       	push	r26
 a5c:	bf 93       	push	r27
 a5e:	ef 93       	push	r30
 a60:	ff 93       	push	r31
 a62:	df 93       	push	r29
 a64:	cf 93       	push	r28
 a66:	0f 92       	push	r0
 a68:	cd b7       	in	r28, 0x3d	; 61
 a6a:	de b7       	in	r29, 0x3e	; 62
 a6c:	10 92 e9 00 	sts	0x00E9, r1
 a70:	80 91 e8 00 	lds	r24, 0x00E8
 a74:	83 ff       	sbrs	r24, 3
 a76:	39 c1       	rjmp	.+626    	; 0xcea <__vector_12+0x2b6>
 a78:	20 91 f1 00 	lds	r18, 0x00F1
 a7c:	30 91 f1 00 	lds	r19, 0x00F1
 a80:	80 91 f1 00 	lds	r24, 0x00F1
 a84:	c8 2e       	mov	r12, r24
 a86:	dd 24       	eor	r13, r13
 a88:	40 91 f1 00 	lds	r20, 0x00F1
 a8c:	94 2f       	mov	r25, r20
 a8e:	80 e0       	ldi	r24, 0x00	; 0
 a90:	c8 2a       	or	r12, r24
 a92:	d9 2a       	or	r13, r25
 a94:	00 91 f1 00 	lds	r16, 0x00F1
 a98:	10 e0       	ldi	r17, 0x00	; 0
 a9a:	40 91 f1 00 	lds	r20, 0x00F1
 a9e:	94 2f       	mov	r25, r20
 aa0:	80 e0       	ldi	r24, 0x00	; 0
 aa2:	08 2b       	or	r16, r24
 aa4:	19 2b       	or	r17, r25
 aa6:	60 91 f1 00 	lds	r22, 0x00F1
 aaa:	a0 91 f1 00 	lds	r26, 0x00F1
 aae:	82 ef       	ldi	r24, 0xF2	; 242
 ab0:	80 93 e8 00 	sts	0x00E8, r24
 ab4:	36 30       	cpi	r19, 0x06	; 6
 ab6:	09 f0       	breq	.+2      	; 0xaba <__vector_12+0x86>
 ab8:	59 c0       	rjmp	.+178    	; 0xb6c <__vector_12+0x138>
 aba:	8b e7       	ldi	r24, 0x7B	; 123
 abc:	90 e0       	ldi	r25, 0x00	; 0
 abe:	9c 01       	movw	r18, r24
 ac0:	25 50       	subi	r18, 0x05	; 5
 ac2:	30 40       	sbci	r19, 0x00	; 0
 ac4:	fc 01       	movw	r30, r24
 ac6:	37 97       	sbiw	r30, 0x07	; 7
 ac8:	45 91       	lpm	r20, Z+
 aca:	54 91       	lpm	r21, Z+
 acc:	4c 15       	cp	r20, r12
 ace:	5d 05       	cpc	r21, r13
 ad0:	f9 f4       	brne	.+62     	; 0xb10 <__vector_12+0xdc>
 ad2:	f9 01       	movw	r30, r18
 ad4:	45 91       	lpm	r20, Z+
 ad6:	54 91       	lpm	r21, Z+
 ad8:	40 17       	cp	r20, r16
 ada:	51 07       	cpc	r21, r17
 adc:	c9 f4       	brne	.+50     	; 0xb10 <__vector_12+0xdc>
 ade:	2e 5f       	subi	r18, 0xFE	; 254
 ae0:	3f 4f       	sbci	r19, 0xFF	; 255
 ae2:	f9 01       	movw	r30, r18
 ae4:	85 91       	lpm	r24, Z+
 ae6:	94 91       	lpm	r25, Z+
 ae8:	2e 5f       	subi	r18, 0xFE	; 254
 aea:	3f 4f       	sbci	r19, 0xFF	; 255
 aec:	f9 01       	movw	r30, r18
 aee:	24 91       	lpm	r18, Z+
 af0:	46 2f       	mov	r20, r22
 af2:	50 e0       	ldi	r21, 0x00	; 0
 af4:	7a 2f       	mov	r23, r26
 af6:	60 e0       	ldi	r22, 0x00	; 0
 af8:	46 2b       	or	r20, r22
 afa:	57 2b       	or	r21, r23
 afc:	4f 3f       	cpi	r20, 0xFF	; 255
 afe:	51 05       	cpc	r21, r1
 b00:	19 f0       	breq	.+6      	; 0xb08 <__vector_12+0xd4>
 b02:	10 f0       	brcs	.+4      	; 0xb08 <__vector_12+0xd4>
 b04:	4f ef       	ldi	r20, 0xFF	; 255
 b06:	50 e0       	ldi	r21, 0x00	; 0
 b08:	42 17       	cp	r20, r18
 b0a:	50 f4       	brcc	.+20     	; 0xb20 <__vector_12+0xec>
 b0c:	24 2f       	mov	r18, r20
 b0e:	08 c0       	rjmp	.+16     	; 0xb20 <__vector_12+0xec>
 b10:	07 96       	adiw	r24, 0x07	; 7
 b12:	29 5f       	subi	r18, 0xF9	; 249
 b14:	3f 4f       	sbci	r19, 0xFF	; 255
 b16:	f0 e0       	ldi	r31, 0x00	; 0
 b18:	8c 3a       	cpi	r24, 0xAC	; 172
 b1a:	9f 07       	cpc	r25, r31
 b1c:	99 f6       	brne	.-90     	; 0xac4 <__vector_12+0x90>
 b1e:	e5 c0       	rjmp	.+458    	; 0xcea <__vector_12+0x2b6>
 b20:	ae ef       	ldi	r26, 0xFE	; 254
 b22:	40 91 e8 00 	lds	r20, 0x00E8
 b26:	50 e0       	ldi	r21, 0x00	; 0
 b28:	ba 01       	movw	r22, r20
 b2a:	65 70       	andi	r22, 0x05	; 5
 b2c:	70 70       	andi	r23, 0x00	; 0
 b2e:	61 15       	cp	r22, r1
 b30:	71 05       	cpc	r23, r1
 b32:	b9 f3       	breq	.-18     	; 0xb22 <__vector_12+0xee>
 b34:	42 fd       	sbrc	r20, 2
 b36:	dc c0       	rjmp	.+440    	; 0xcf0 <__vector_12+0x2bc>
 b38:	32 2f       	mov	r19, r18
 b3a:	21 32       	cpi	r18, 0x21	; 33
 b3c:	08 f0       	brcs	.+2      	; 0xb40 <__vector_12+0x10c>
 b3e:	30 e2       	ldi	r19, 0x20	; 32
 b40:	ac 01       	movw	r20, r24
 b42:	63 2f       	mov	r22, r19
 b44:	07 c0       	rjmp	.+14     	; 0xb54 <__vector_12+0x120>
 b46:	fa 01       	movw	r30, r20
 b48:	4f 5f       	subi	r20, 0xFF	; 255
 b4a:	5f 4f       	sbci	r21, 0xFF	; 255
 b4c:	e4 91       	lpm	r30, Z+
 b4e:	e0 93 f1 00 	sts	0x00F1, r30
 b52:	61 50       	subi	r22, 0x01	; 1
 b54:	66 23       	and	r22, r22
 b56:	b9 f7       	brne	.-18     	; 0xb46 <__vector_12+0x112>
 b58:	83 0f       	add	r24, r19
 b5a:	91 1d       	adc	r25, r1
 b5c:	23 1b       	sub	r18, r19
 b5e:	a0 93 e8 00 	sts	0x00E8, r26
 b62:	22 23       	and	r18, r18
 b64:	f1 f6       	brne	.-68     	; 0xb22 <__vector_12+0xee>
 b66:	30 32       	cpi	r19, 0x20	; 32
 b68:	e1 f2       	breq	.-72     	; 0xb22 <__vector_12+0xee>
 b6a:	c2 c0       	rjmp	.+388    	; 0xcf0 <__vector_12+0x2bc>
 b6c:	35 30       	cpi	r19, 0x05	; 5
 b6e:	49 f4       	brne	.+18     	; 0xb82 <__vector_12+0x14e>
 b70:	8e ef       	ldi	r24, 0xFE	; 254
 b72:	80 93 e8 00 	sts	0x00E8, r24
 b76:	9c de       	rcall	.-712    	; 0x8b0 <usb_wait_in_ready>
 b78:	8c 2d       	mov	r24, r12
 b7a:	80 68       	ori	r24, 0x80	; 128
 b7c:	80 93 e3 00 	sts	0x00E3, r24
 b80:	b7 c0       	rjmp	.+366    	; 0xcf0 <__vector_12+0x2bc>
 b82:	39 30       	cpi	r19, 0x09	; 9
 b84:	31 f5       	brne	.+76     	; 0xbd2 <__vector_12+0x19e>
 b86:	22 23       	and	r18, r18
 b88:	09 f0       	breq	.+2      	; 0xb8c <__vector_12+0x158>
 b8a:	69 c0       	rjmp	.+210    	; 0xc5e <__vector_12+0x22a>
 b8c:	c0 92 45 02 	sts	0x0245, r12
 b90:	8e ef       	ldi	r24, 0xFE	; 254
 b92:	80 93 e8 00 	sts	0x00E8, r24
 b96:	41 e0       	ldi	r20, 0x01	; 1
 b98:	85 ea       	ldi	r24, 0xA5	; 165
 b9a:	90 e0       	ldi	r25, 0x00	; 0
 b9c:	40 93 e9 00 	sts	0x00E9, r20
 ba0:	fc 01       	movw	r30, r24
 ba2:	01 96       	adiw	r24, 0x01	; 1
 ba4:	e4 91       	lpm	r30, Z+
 ba6:	e0 93 eb 00 	sts	0x00EB, r30
 baa:	ee 23       	and	r30, r30
 bac:	69 f0       	breq	.+26     	; 0xbc8 <__vector_12+0x194>
 bae:	9c 01       	movw	r18, r24
 bb0:	2f 5f       	subi	r18, 0xFF	; 255
 bb2:	3f 4f       	sbci	r19, 0xFF	; 255
 bb4:	fc 01       	movw	r30, r24
 bb6:	84 91       	lpm	r24, Z+
 bb8:	80 93 ec 00 	sts	0x00EC, r24
 bbc:	c9 01       	movw	r24, r18
 bbe:	01 96       	adiw	r24, 0x01	; 1
 bc0:	f9 01       	movw	r30, r18
 bc2:	24 91       	lpm	r18, Z+
 bc4:	20 93 ed 00 	sts	0x00ED, r18
 bc8:	4f 5f       	subi	r20, 0xFF	; 255
 bca:	45 30       	cpi	r20, 0x05	; 5
 bcc:	39 f7       	brne	.-50     	; 0xb9c <__vector_12+0x168>
 bce:	8e e1       	ldi	r24, 0x1E	; 30
 bd0:	41 c0       	rjmp	.+130    	; 0xc54 <__vector_12+0x220>
 bd2:	38 30       	cpi	r19, 0x08	; 8
 bd4:	39 f4       	brne	.+14     	; 0xbe4 <__vector_12+0x1b0>
 bd6:	20 38       	cpi	r18, 0x80	; 128
 bd8:	09 f0       	breq	.+2      	; 0xbdc <__vector_12+0x1a8>
 bda:	41 c0       	rjmp	.+130    	; 0xc5e <__vector_12+0x22a>
 bdc:	69 de       	rcall	.-814    	; 0x8b0 <usb_wait_in_ready>
 bde:	80 91 45 02 	lds	r24, 0x0245
 be2:	61 c0       	rjmp	.+194    	; 0xca6 <__vector_12+0x272>
 be4:	33 23       	and	r19, r19
 be6:	a9 f4       	brne	.+42     	; 0xc12 <__vector_12+0x1de>
 be8:	29 83       	std	Y+1, r18	; 0x01
 bea:	62 de       	rcall	.-828    	; 0x8b0 <usb_wait_in_ready>
 bec:	29 81       	ldd	r18, Y+1	; 0x01
 bee:	22 38       	cpi	r18, 0x82	; 130
 bf0:	51 f4       	brne	.+20     	; 0xc06 <__vector_12+0x1d2>
 bf2:	00 93 e9 00 	sts	0x00E9, r16
 bf6:	90 91 eb 00 	lds	r25, 0x00EB
 bfa:	81 e0       	ldi	r24, 0x01	; 1
 bfc:	95 ff       	sbrs	r25, 5
 bfe:	80 e0       	ldi	r24, 0x00	; 0
 c00:	10 92 e9 00 	sts	0x00E9, r1
 c04:	01 c0       	rjmp	.+2      	; 0xc08 <__vector_12+0x1d4>
 c06:	80 e0       	ldi	r24, 0x00	; 0
 c08:	80 93 f1 00 	sts	0x00F1, r24
 c0c:	10 92 f1 00 	sts	0x00F1, r1
 c10:	68 c0       	rjmp	.+208    	; 0xce2 <__vector_12+0x2ae>
 c12:	31 30       	cpi	r19, 0x01	; 1
 c14:	11 f0       	breq	.+4      	; 0xc1a <__vector_12+0x1e6>
 c16:	33 30       	cpi	r19, 0x03	; 3
 c18:	11 f5       	brne	.+68     	; 0xc5e <__vector_12+0x22a>
 c1a:	22 30       	cpi	r18, 0x02	; 2
 c1c:	01 f5       	brne	.+64     	; 0xc5e <__vector_12+0x22a>
 c1e:	c1 14       	cp	r12, r1
 c20:	d1 04       	cpc	r13, r1
 c22:	e9 f4       	brne	.+58     	; 0xc5e <__vector_12+0x22a>
 c24:	40 2f       	mov	r20, r16
 c26:	4f 77       	andi	r20, 0x7F	; 127
 c28:	84 2f       	mov	r24, r20
 c2a:	81 50       	subi	r24, 0x01	; 1
 c2c:	84 30       	cpi	r24, 0x04	; 4
 c2e:	b8 f4       	brcc	.+46     	; 0xc5e <__vector_12+0x22a>
 c30:	8e ef       	ldi	r24, 0xFE	; 254
 c32:	80 93 e8 00 	sts	0x00E8, r24
 c36:	40 93 e9 00 	sts	0x00E9, r20
 c3a:	33 30       	cpi	r19, 0x03	; 3
 c3c:	09 f4       	brne	.+2      	; 0xc40 <__vector_12+0x20c>
 c3e:	55 c0       	rjmp	.+170    	; 0xcea <__vector_12+0x2b6>
 c40:	89 e1       	ldi	r24, 0x19	; 25
 c42:	80 93 eb 00 	sts	0x00EB, r24
 c46:	81 e0       	ldi	r24, 0x01	; 1
 c48:	90 e0       	ldi	r25, 0x00	; 0
 c4a:	02 c0       	rjmp	.+4      	; 0xc50 <__vector_12+0x21c>
 c4c:	88 0f       	add	r24, r24
 c4e:	99 1f       	adc	r25, r25
 c50:	4a 95       	dec	r20
 c52:	e2 f7       	brpl	.-8      	; 0xc4c <__vector_12+0x218>
 c54:	80 93 ea 00 	sts	0x00EA, r24
 c58:	10 92 ea 00 	sts	0x00EA, r1
 c5c:	49 c0       	rjmp	.+146    	; 0xcf0 <__vector_12+0x2bc>
 c5e:	01 15       	cp	r16, r1
 c60:	11 05       	cpc	r17, r1
 c62:	09 f0       	breq	.+2      	; 0xc66 <__vector_12+0x232>
 c64:	42 c0       	rjmp	.+132    	; 0xcea <__vector_12+0x2b6>
 c66:	21 3a       	cpi	r18, 0xA1	; 161
 c68:	09 f5       	brne	.+66     	; 0xcac <__vector_12+0x278>
 c6a:	31 30       	cpi	r19, 0x01	; 1
 c6c:	89 f4       	brne	.+34     	; 0xc90 <__vector_12+0x25c>
 c6e:	20 de       	rcall	.-960    	; 0x8b0 <usb_wait_in_ready>
 c70:	80 91 3d 02 	lds	r24, 0x023D
 c74:	80 93 f1 00 	sts	0x00F1, r24
 c78:	10 92 f1 00 	sts	0x00F1, r1
 c7c:	ee e3       	ldi	r30, 0x3E	; 62
 c7e:	f2 e0       	ldi	r31, 0x02	; 2
 c80:	81 91       	ld	r24, Z+
 c82:	80 93 f1 00 	sts	0x00F1, r24
 c86:	22 e0       	ldi	r18, 0x02	; 2
 c88:	e4 34       	cpi	r30, 0x44	; 68
 c8a:	f2 07       	cpc	r31, r18
 c8c:	c9 f7       	brne	.-14     	; 0xc80 <__vector_12+0x24c>
 c8e:	29 c0       	rjmp	.+82     	; 0xce2 <__vector_12+0x2ae>
 c90:	32 30       	cpi	r19, 0x02	; 2
 c92:	21 f4       	brne	.+8      	; 0xc9c <__vector_12+0x268>
 c94:	0d de       	rcall	.-998    	; 0x8b0 <usb_wait_in_ready>
 c96:	80 91 2d 02 	lds	r24, 0x022D
 c9a:	05 c0       	rjmp	.+10     	; 0xca6 <__vector_12+0x272>
 c9c:	33 30       	cpi	r19, 0x03	; 3
 c9e:	29 f5       	brne	.+74     	; 0xcea <__vector_12+0x2b6>
 ca0:	07 de       	rcall	.-1010   	; 0x8b0 <usb_wait_in_ready>
 ca2:	80 91 2e 02 	lds	r24, 0x022E
 ca6:	80 93 f1 00 	sts	0x00F1, r24
 caa:	1b c0       	rjmp	.+54     	; 0xce2 <__vector_12+0x2ae>
 cac:	21 32       	cpi	r18, 0x21	; 33
 cae:	e9 f4       	brne	.+58     	; 0xcea <__vector_12+0x2b6>
 cb0:	39 30       	cpi	r19, 0x09	; 9
 cb2:	61 f4       	brne	.+24     	; 0xccc <__vector_12+0x298>
 cb4:	80 91 e8 00 	lds	r24, 0x00E8
 cb8:	82 ff       	sbrs	r24, 2
 cba:	fc cf       	rjmp	.-8      	; 0xcb4 <__vector_12+0x280>
 cbc:	80 91 f1 00 	lds	r24, 0x00F1
 cc0:	80 93 44 02 	sts	0x0244, r24
 cc4:	8b ef       	ldi	r24, 0xFB	; 251
 cc6:	80 93 e8 00 	sts	0x00E8, r24
 cca:	0b c0       	rjmp	.+22     	; 0xce2 <__vector_12+0x2ae>
 ccc:	3a 30       	cpi	r19, 0x0A	; 10
 cce:	29 f4       	brne	.+10     	; 0xcda <__vector_12+0x2a6>
 cd0:	d0 92 2d 02 	sts	0x022D, r13
 cd4:	10 92 46 02 	sts	0x0246, r1
 cd8:	04 c0       	rjmp	.+8      	; 0xce2 <__vector_12+0x2ae>
 cda:	3b 30       	cpi	r19, 0x0B	; 11
 cdc:	31 f4       	brne	.+12     	; 0xcea <__vector_12+0x2b6>
 cde:	c0 92 2e 02 	sts	0x022E, r12
 ce2:	8e ef       	ldi	r24, 0xFE	; 254
 ce4:	80 93 e8 00 	sts	0x00E8, r24
 ce8:	03 c0       	rjmp	.+6      	; 0xcf0 <__vector_12+0x2bc>
 cea:	81 e2       	ldi	r24, 0x21	; 33
 cec:	80 93 eb 00 	sts	0x00EB, r24
 cf0:	0f 90       	pop	r0
 cf2:	cf 91       	pop	r28
 cf4:	df 91       	pop	r29
 cf6:	ff 91       	pop	r31
 cf8:	ef 91       	pop	r30
 cfa:	bf 91       	pop	r27
 cfc:	af 91       	pop	r26
 cfe:	9f 91       	pop	r25
 d00:	8f 91       	pop	r24
 d02:	7f 91       	pop	r23
 d04:	6f 91       	pop	r22
 d06:	5f 91       	pop	r21
 d08:	4f 91       	pop	r20
 d0a:	3f 91       	pop	r19
 d0c:	2f 91       	pop	r18
 d0e:	1f 91       	pop	r17
 d10:	0f 91       	pop	r16
 d12:	ff 90       	pop	r15
 d14:	ef 90       	pop	r14
 d16:	df 90       	pop	r13
 d18:	cf 90       	pop	r12
 d1a:	0f 90       	pop	r0
 d1c:	0f be       	out	0x3f, r0	; 63
 d1e:	0f 90       	pop	r0
 d20:	1f 90       	pop	r1
 d22:	18 95       	reti

00000d24 <_exit>:
 d24:	f8 94       	cli

00000d26 <__stop_program>:
 d26:	ff cf       	rjmp	.-2      	; 0xd26 <__stop_program>
